(dp0
S'CNN'
p1
(dp2
S'IID'
p3
(lp4
(lp5
F0.5060954371299199
aF0.5060954371299199
aF0.5050505050505051
aF0.5060954371299199
aF0.5060954371299199
aF0.5060954371299199
aF0.5060954371299199
aF0.5060954371299199
aF0.5060954371299199
aF0.5060954371299199
aF0.5060954371299199
aF0.5060954371299199
aF0.5060954371299199
aF0.5060954371299199
aF0.5060954371299199
aF0.5060954371299199
aF0.5060954371299199
aF0.5060954371299199
aF0.5060954371299199
aF0.5060954371299199
aF0.5060954371299199
aF0.5060954371299199
aF0.5060954371299199
aF0.5060954371299199
aF0.5060954371299199
aF0.5060954371299199
aF0.5060954371299199
aF0.5060954371299199
aF0.5060954371299199
aF0.5060954371299199
aF0.5060954371299199
aF0.5060954371299199
aF0.5060954371299199
aF0.5060954371299199
aF0.5060954371299199
aF0.5060954371299199
aF0.5060954371299199
aF0.5060954371299199
aF0.5060954371299199
aF0.5060954371299199
aF0.5060954371299199
aF0.5060954371299199
aF0.5060954371299199
aF0.5060954371299199
aF0.5060954371299199
aF0.5060954371299199
aF0.5060954371299199
aF0.5060954371299199
aF0.5060954371299199
aF0.5060954371299199
aF0.5060954371299199
aF0.5060954371299199
aF0.5060954371299199
aF0.5060954371299199
aF0.5060954371299199
aF0.5210727969348659
aF0.5060954371299199
aF0.5060954371299199
aF0.5060954371299199
aF0.4939045628700801
aF0.5022640195053988
aF0.4939045628700801
aF0.5060954371299199
aF0.512365029606409
aF0.4939045628700801
aF0.49843260188087773
aF0.5060954371299199
aF0.5092302333681644
aF0.5520724486241727
aF0.5451062347614072
aF0.5060954371299199
aF0.5273423894113549
aF0.531173807035876
aF0.5060954371299199
aF0.4939045628700801
aF0.5060954371299199
aF0.5280390107976315
aF0.5667014977359804
aF0.5060954371299199
aF0.4942528735632184
aF0.4939045628700801
aF0.5350052246603971
aF0.5433646812957158
aF0.5395332636711947
aF0.5092302333681644
aF0.5060954371299199
aF0.5231626610936956
aF0.5057471264367817
aF0.5269940787182167
aF0.5060954371299199
aF0.5060954371299199
aF0.5060954371299199
aF0.5168930686172065
aF0.5060954371299199
aF0.5057471264367817
aF0.4939045628700801
aF0.4939045628700801
aF0.5060954371299199
aF0.5060954371299199
aF0.554858934169279
aF0.5228143504005573
aF0.542319749216301
aF0.5318704284221526
aF0.5454545454545454
aF0.5060954371299199
aF0.5060954371299199
aF0.4939045628700801
aF0.5677464298153954
aF0.5092302333681644
aF0.5343086032741206
aF0.566004876349704
aF0.5639150121908743
aF0.5534656913967259
aF0.5060954371299199
aF0.4939045628700801
aF0.5409265064437478
aF0.5060954371299199
aF0.4939045628700801
aF0.5060954371299199
aF0.5256008359456635
aF0.5060954371299199
aF0.4935562521769418
aF0.5499825844653431
aF0.5332636711947056
aF0.5360501567398119
aF0.5559038662486938
aF0.5555555555555556
aF0.498780912574016
aF0.4939045628700801
aF0.5256008359456635
aF0.5475444096133751
aF0.5628700801114594
aF0.5067920585161965
aF0.5060954371299199
aF0.5252525252525253
aF0.5451062347614072
aF0.5060954371299199
aF0.4939045628700801
aF0.5426680599094392
aF0.5531173807035876
aF0.5632183908045977
aF0.5120167189132706
aF0.542319749216301
aF0.5047021943573667
aF0.4952978056426332
aF0.5060954371299199
aF0.5221177290142808
aF0.5060954371299199
aF0.5471960989202369
aF0.5538140020898642
aF0.5060954371299199
aF0.5231626610936956
aF0.5060954371299199
aF0.4939045628700801
aF0.522466039707419
aF0.5053988157436433
aF0.4939045628700801
aF0.5541623127830024
aF0.5719261581330547
aF0.49285963079066525
aF0.5060954371299199
aF0.5060954371299199
aF0.5060954371299199
aF0.5527690700104493
aF0.4939045628700801
aF0.5060954371299199
aF0.4939045628700801
aF0.5060954371299199
aF0.5060954371299199
aF0.5060954371299199
aF0.5060954371299199
aF0.4939045628700801
aF0.49216300940438873
aF0.587251828631139
aF0.5952629745733194
aF0.5412748171368861
aF0.5060954371299199
aF0.4939045628700801
aF0.5033089515848137
aF0.5754092650644375
aF0.4991292232671543
aF0.4939045628700801
aF0.501219087425984
aF0.5590386624869383
aF0.5095785440613027
aF0.498780912574016
aF0.5363984674329502
aF0.5144548937652386
aF0.5545106234761407
aF0.5649599442702891
aF0.531173807035876
aF0.5552072448624172
aF0.5924764890282131
aF0.5510275165447579
aF0.5060954371299199
aF0.51619644723093
aF0.5228143504005573
aF0.5917798676419366
aF0.5503308951584813
aF0.5628700801114594
aF0.5552072448624172
aF0.6043190525949147
aF0.5374433995123651
aF0.5210727969348659
aF0.5694879832810867
aF0.6008359456635318
aF0.5060954371299199
aF0.501219087425984
aF0.6098920236851272
aF0.5060954371299199
aF0.4939045628700801
aF0.5060954371299199
aF0.5060954371299199
aF0.5475444096133751
aF0.5402298850574713
aF0.5541623127830024
aF0.5060954371299199
aF0.5820271682340648
aF0.5614768373389063
aF0.6185997910135841
aF0.5555555555555556
aF0.5869035179380007
aF0.5694879832810867
aF0.6029258098223615
aF0.5541623127830024
aF0.5088819226750261
aF0.5060954371299199
aF0.5060954371299199
aF0.5036572622779519
aF0.6269592476489029
aF0.5060954371299199
aF0.4939045628700801
aF0.5475444096133751
aF0.5851619644723093
aF0.5315221177290143
aF0.5646116335771508
aF0.5060954371299199
aF0.5646116335771508
aF0.6060606060606061
aF0.6224312086381052
aF0.5060954371299199
aF0.5256008359456635
aF0.5541623127830024
aF0.5022640195053988
aF0.5388366422849181
aF0.5374433995123651
aF0.5579937304075235
aF0.6300940438871473
aF0.5600835945663531
aF0.4939045628700801
aF0.5541623127830024
aF0.5562521769418322
aF0.5060954371299199
aF0.5060954371299199
aF0.5545106234761407
aF0.5586903517938001
aF0.4939045628700801
aF0.5238592824799722
aF0.5036572622779519
aF0.5583420411006618
aF0.6203413444792755
aF0.5026123301985371
aF0.542319749216301
aF0.619644723092999
aF0.5538140020898642
aF0.5060954371299199
aF0.6119818878439568
aF0.54858934169279
aF0.4946011842563567
aF0.6081504702194357
aF0.6224312086381052
aF0.5060954371299199
aF0.4939045628700801
aF0.5377917102055033
aF0.5837687216997561
aF0.5109717868338558
aF0.5395332636711947
aF0.5555555555555556
aF0.5060954371299199
aF0.5677464298153954
aF0.5060954371299199
aF0.6144200626959248
aF0.5182863113897597
aF0.509926854754441
aF0.6179031696273075
aF0.5513758272378962
aF0.5175896900034831
aF0.5304771856495994
aF0.6454197143852316
aF0.5882967607105538
aF0.6252176941832114
aF0.5579937304075235
aF0.617206548241031
aF0.5628700801114594
aF0.5534656913967259
aF0.6018808777429467
aF0.4939045628700801
aF0.617206548241031
aF0.6353187042842215
aF0.5538140020898642
aF0.557297109021247
aF0.6314872866597004
aF0.6335771508185302
aF0.6307906652734239
aF0.6168582375478927
aF0.6004876349703936
aF0.6071055381400209
aF0.6095437129919888
aF0.5329153605015674
aF0.6144200626959248
aF0.5625217694183211
aF0.5621734587251829
aF0.6276558690351793
aF0.6381051898293277
aF0.4939045628700801
aF0.5632183908045977
aF0.6269592476489029
aF0.6388018112156043
aF0.5579937304075235
aF0.6165099268547545
aF0.4939045628700801
aF0.6367119470567747
aF0.6227795193312434
aF0.6151166840822013
aF0.512365029606409
aF0.6015325670498084
aF0.5060954371299199
aF0.6398467432950191
aF0.5419714385231627
aF0.6290491118077325
aF0.6419366074538488
aF0.6370602577499129
aF0.6273075583420411
aF0.6339254615116684
aF0.6349703935910832
aF0.5060954371299199
aF0.5060954371299199
aF0.6450714036920934
aF0.6297457331940091
aF0.5604319052594915
aF0.5559038662486938
aF0.617206548241031
aF0.5060954371299199
aF0.5060954371299199
aF0.6255660048763497
aF0.5060954371299199
aF0.5513758272378962
aF0.6412399860675723
aF0.5621734587251829
aF0.5527690700104493
aF0.5649599442702891
aF0.6273075583420411
aF0.6440264716126786
aF0.6262626262626263
aF0.6388018112156043
aF0.6492511320097527
aF0.6388018112156043
aF0.6356670149773598
aF0.5060954371299199
aF0.5538140020898642
aF0.6314872866597004
aF0.643329850226402
aF0.5060954371299199
aF0.6293974225008708
aF0.6454197143852316
aF0.625914315569488
aF0.5541623127830024
aF0.6440264716126786
aF0.531173807035876
aF0.6394984326018809
aF0.5614768373389063
aF0.5538140020898642
aF0.6363636363636364
aF0.6328805294322536
aF0.6436781609195402
aF0.6440264716126786
aF0.5060954371299199
aF0.6443747823058168
aF0.6415882967607106
aF0.6576105886450714
aF0.634622082897945
aF0.5388366422849181
aF0.6509926854754441
aF0.6489028213166145
aF0.6412399860675723
aF0.6579588993382097
aF0.544757924068269
aF0.557297109021247
aF0.6461163357715082
aF0.5583420411006618
aF0.6603970741901777
aF0.6492511320097527
aF0.6370602577499129
aF0.6384535005224661
aF0.5538140020898642
aF0.6527342389411355
aF0.5562521769418322
aF0.653430860327412
aF0.5290839428770463
aF0.634622082897945
aF0.6443747823058168
aF0.6342737722048067
aF0.524904214559387
aF0.6509926854754441
aF0.6450714036920934
aF0.5583420411006618
aF0.6638801811215604
aF0.6388018112156043
aF0.6513409961685823
aF0.6502960640891675
aF0.6440264716126786
aF0.6478578892371996
aF0.6227795193312434
aF0.6492511320097527
aF0.6363636363636364
aF0.6572622779519331
aF0.5060954371299199
aF0.5496342737722049
aF0.5060954371299199
aF0.5503308951584813
aF0.653430860327412
aF0.557297109021247
aF0.6429815395332636
aF0.6394984326018809
aF0.6527342389411355
aF0.644723092998955
aF0.5057471264367817
aF0.6520376175548589
aF0.5541623127830024
aF0.6520376175548589
aF0.6513409961685823
aF0.5489376523859283
aF0.5259491466388018
aF0.6475095785440613
aF0.65586903517938
aF0.6551724137931034
aF0.6370602577499129
aF0.6506443747823059
aF0.6562173458725182
aF0.5060954371299199
aF0.6478578892371996
aF0.6419366074538488
aF0.5639150121908743
aF0.6555207244862418
aF0.6475095785440613
aF0.6586555207244862
aF0.6381051898293277
aF0.653430860327412
aF0.6422849181469871
aF0.6485545106234761
aF0.6311389759665622
aF0.664576802507837
aF0.6548241030999652
aF0.6656217345872518
aF0.5454545454545454
aF0.6541274817136886
aF0.6475095785440613
aF0.6576105886450714
aF0.6523859282479972
aF0.6621386276558691
aF0.6478578892371996
aF0.6478578892371996
aF0.64576802507837
aF0.6576105886450714
aF0.6569139672587948
aF0.6363636363636364
aF0.664576802507837
aF0.5545106234761407
aF0.5552072448624172
aF0.5534656913967259
aF0.6520376175548589
aF0.6617903169627307
aF0.5597352838732149
aF0.6593521421107628
aF0.6572622779519331
aF0.6541274817136886
aF0.6562173458725182
aF0.6506443747823059
aF0.6586555207244862
aF0.6652734238941136
aF0.6586555207244862
aF0.6600487634970393
aF0.6635318704284221
aF0.6597004528039011
aF0.6677115987460815
aF0.6468129571577848
aF0.5566004876349704
aF0.6485545106234761
aF0.6502960640891675
aF0.6704980842911877
aF0.6635318704284221
aF0.6649251132009752
aF0.6461163357715082
aF0.6610936955764541
aF0.5217694183211424
aF0.6565656565656566
aF0.6715430163706025
aF0.6590038314176245
aF0.6489028213166145
aF0.6687565308254964
aF0.6530825496342738
aF0.6569139672587948
aF0.6548241030999652
aF0.6495994427028909
aF0.6600487634970393
aF0.6137234413096482
aF0.6478578892371996
aF0.6492511320097527
aF0.5492859630790665
aF0.65586903517938
aF0.6576105886450714
aF0.5562521769418322
aF0.6663183559735284
aF0.6638801811215604
aF0.667014977359805
aF0.6541274817136886
aF0.5538140020898642
aF0.6649251132009752
aF0.6614420062695925
aF0.6642284918146987
aF0.6704980842911877
aF0.6597004528039011
aF0.6607453848833159
aF0.5391849529780565
aF0.6603970741901777
aF0.6530825496342738
aF0.6600487634970393
aF0.6624869383490073
aF0.6502960640891675
aF0.6704980842911877
aF0.6586555207244862
aF0.6704980842911877
aF0.6537791710205503
aF0.6704980842911877
aF0.6617903169627307
aF0.5193312434691745
aF0.6537791710205503
aF0.6624869383490073
aF0.6593521421107628
aF0.6673632880529432
aF0.640891675374434
aF0.6600487634970393
aF0.6635318704284221
aF0.6649251132009752
aF0.5545106234761407
aF0.6562173458725182
aF0.6562173458725182
aF0.6600487634970393
aF0.6715430163706025
aF0.6597004528039011
aF0.6565656565656566
aF0.6597004528039011
aF0.6691048415186346
aF0.6673632880529432
aF0.6610936955764541
aF0.664576802507837
aF0.6722396377568791
aF0.668408220132358
aF0.6631835597352839
aF0.6572622779519331
aF0.6419366074538488
aF0.5444096133751306
aF0.6656217345872518
aF0.6572622779519331
aF0.667014977359805
aF0.6590038314176245
aF0.6492511320097527
aF0.6624869383490073
aF0.5109717868338558
aF0.6729362591431557
aF0.6652734238941136
aF0.6590038314176245
aF0.6704980842911877
aF0.6537791710205503
aF0.6530825496342738
aF0.6548241030999652
aF0.64576802507837
aF0.6464646464646465
aF0.6506443747823059
aF0.6610936955764541
aF0.6495994427028909
aF0.6600487634970393
aF0.6489028213166145
aF0.6537791710205503
aF0.6597004528039011
aF0.664576802507837
aF0.6778126088470916
aF0.6520376175548589
aF0.6628352490421456
aF0.6600487634970393
aF0.6729362591431557
aF0.6318355973528388
aF0.6544757924068269
aF0.6663183559735284
aF0.6541274817136886
aF0.6673632880529432
aF0.6635318704284221
aF0.6621386276558691
aF0.6478578892371996
aF0.6537791710205503
aF0.6729362591431557
aF0.6729362591431557
aF0.6739811912225705
aF0.6624869383490073
aF0.65586903517938
aF0.6579588993382097
aF0.6701497735980495
aF0.6527342389411355
aF0.6638801811215604
aF0.670846394984326
aF0.6610936955764541
aF0.6750261233019854
aF0.653430860327412
aF0.6617903169627307
aF0.6698014629049112
aF0.6652734238941136
aF0.6520376175548589
aF0.6590038314176245
aF0.677115987460815
aF0.6725879484500175
aF0.6729362591431557
aF0.6610936955764541
aF0.653430860327412
aF0.6569139672587948
aF0.6746778126088471
aF0.6701497735980495
aF0.6621386276558691
aF0.6537791710205503
aF0.6513409961685823
aF0.6576105886450714
aF0.6492511320097527
aF0.6548241030999652
aF0.6701497735980495
aF0.658307210031348
aF0.6819923371647509
aF0.6593521421107628
aF0.6576105886450714
aF0.6718913270637409
aF0.6718913270637409
aF0.670846394984326
aF0.6698014629049112
aF0.6597004528039011
aF0.6764193660745385
aF0.6541274817136886
aF0.664576802507837
aF0.6656217345872518
aF0.6631835597352839
aF0.6677115987460815
aF0.6597004528039011
aF0.6743295019157088
aF0.6569139672587948
aF0.6729362591431557
aF0.6610936955764541
aF0.6628352490421456
aF0.6774642981539534
aF0.6569139672587948
aF0.6732845698362939
aF0.6715430163706025
aF0.6687565308254964
aF0.670846394984326
aF0.6590038314176245
aF0.6562173458725182
aF0.6624869383490073
aF0.6701497735980495
aF0.64576802507837
aF0.6485545106234761
aF0.6736328805294323
aF0.6631835597352839
aF0.6722396377568791
aF0.6764193660745385
aF0.6419366074538488
aF0.6680599094392198
aF0.6680599094392198
aF0.6691048415186346
aF0.6701497735980495
aF0.6767676767676768
aF0.6680599094392198
aF0.6631835597352839
aF0.6624869383490073
aF0.6621386276558691
aF0.658307210031348
aF0.6656217345872518
aF0.6617903169627307
aF0.6711947056774643
aF0.6739811912225705
aF0.6799024730059213
aF0.6607453848833159
aF0.6680599094392198
aF0.6816440264716127
aF0.6649251132009752
aF0.6666666666666666
aF0.6753744339951236
aF0.6569139672587948
aF0.6607453848833159
aF0.664576802507837
aF0.6725879484500175
aF0.6597004528039011
aF0.668408220132358
aF0.6746778126088471
aF0.6516893068617207
aF0.6767676767676768
aF0.664576802507837
aF0.6785092302333682
aF0.66597004528039
aF0.6649251132009752
aF0.6698014629049112
aF0.6565656565656566
aF0.6753744339951236
aF0.6621386276558691
aF0.6628352490421456
aF0.658307210031348
aF0.6788575409265064
aF0.6677115987460815
aasS'SGD_Uncertainty'
p6
(lp7
(lp8
F0.5060954371299199
aF0.5060954371299199
aF0.5060954371299199
aF0.4939045628700801
aF0.5060954371299199
aF0.5060954371299199
aF0.5060954371299199
aF0.5060954371299199
aF0.5040055729710902
aF0.5053988157436433
aF0.5060954371299199
aF0.5060954371299199
aF0.5141065830721003
aF0.4942528735632184
aF0.5060954371299199
aF0.5060954371299199
aF0.4939045628700801
aF0.5060954371299199
aF0.5482410309996517
aF0.4939045628700801
aF0.5060954371299199
aF0.4939045628700801
aF0.5060954371299199
aF0.5060954371299199
aF0.5060954371299199
aF0.5060954371299199
aF0.5060954371299199
aF0.5060954371299199
aF0.5060954371299199
aF0.5060954371299199
aF0.5060954371299199
aF0.5060954371299199
aF0.5060954371299199
aF0.5060954371299199
aF0.5060954371299199
aF0.5060954371299199
aF0.5060954371299199
aF0.5060954371299199
aF0.5060954371299199
aF0.5060954371299199
aF0.5060954371299199
aF0.5060954371299199
aF0.5060954371299199
aF0.5060954371299199
aF0.5060954371299199
aF0.5060954371299199
aF0.5060954371299199
aF0.5060954371299199
aF0.5060954371299199
aF0.5060954371299199
aF0.5060954371299199
aF0.5060954371299199
aF0.5060954371299199
aF0.5060954371299199
aF0.5060954371299199
aF0.5060954371299199
aF0.5060954371299199
aF0.507488679902473
aF0.5060954371299199
aF0.5060954371299199
aF0.5060954371299199
aF0.5060954371299199
aF0.5060954371299199
aF0.5060954371299199
aF0.5060954371299199
aF0.4939045628700801
aF0.5060954371299199
aF0.5391849529780565
aF0.5060954371299199
aF0.5060954371299199
aF0.4939045628700801
aF0.5060954371299199
aF0.5060954371299199
aF0.5060954371299199
aF0.5060954371299199
aF0.5060954371299199
aF0.5175896900034831
aF0.5060954371299199
aF0.5060954371299199
aF0.5060954371299199
aF0.4991292232671543
aF0.5193312434691745
aF0.5060954371299199
aF0.5001741553465692
aF0.5186346220828979
aF0.5060954371299199
aF0.5060954371299199
aF0.4939045628700801
aF0.5060954371299199
aF0.5060954371299199
aF0.5057471264367817
aF0.5060954371299199
aF0.4939045628700801
aF0.5060954371299199
aF0.5057471264367817
aF0.5060954371299199
aF0.5060954371299199
aF0.49738766980146293
aF0.4939045628700801
aF0.5060954371299199
aF0.5294322535701846
aF0.5060954371299199
aF0.5060954371299199
aF0.5060954371299199
aF0.5060954371299199
aF0.5060954371299199
aF0.5262974573319401
aF0.520027864855451
aF0.4939045628700801
aF0.5060954371299199
aF0.4939045628700801
aF0.5060954371299199
aF0.4939045628700801
aF0.5367467781260885
aF0.5060954371299199
aF0.4939045628700801
aF0.4939045628700801
aF0.5057471264367817
aF0.5060954371299199
aF0.4939045628700801
aF0.5579937304075235
aF0.5060954371299199
aF0.5060954371299199
aF0.5060954371299199
aF0.5060954371299199
aF0.5081853012887496
aF0.4939045628700801
aF0.5060954371299199
aF0.5329153605015674
aF0.5060954371299199
aF0.49634273772204807
aF0.4952978056426332
aF0.4939045628700801
aF0.5060954371299199
aF0.5060954371299199
aF0.5060954371299199
aF0.4939045628700801
aF0.5060954371299199
aF0.4939045628700801
aF0.4939045628700801
aF0.5102751654475792
aF0.5329153605015674
aF0.5151515151515151
aF0.4939045628700801
aF0.5060954371299199
aF0.4939045628700801
aF0.5060954371299199
aF0.51619644723093
aF0.4939045628700801
aF0.4939045628700801
aF0.5301288749564612
aF0.5252525252525253
aF0.5297805642633229
aF0.5060954371299199
aF0.5060954371299199
aF0.5060954371299199
aF0.5060954371299199
aF0.4939045628700801
aF0.5053988157436433
aF0.5060954371299199
aF0.4939045628700801
aF0.5141065830721003
aF0.5060954371299199
aF0.4939045628700801
aF0.4939045628700801
aF0.5060954371299199
aF0.5538140020898642
aF0.5060954371299199
aF0.5060954371299199
aF0.5071403692093347
aF0.5060954371299199
aF0.5060954371299199
aF0.4946011842563567
aF0.5060954371299199
aF0.5144548937652386
aF0.5033089515848137
aF0.5060954371299199
aF0.4939045628700801
aF0.5060954371299199
aF0.5060954371299199
aF0.5060954371299199
aF0.5060954371299199
aF0.5597352838732149
aF0.5060954371299199
aF0.5165447579240683
aF0.5060954371299199
aF0.4939045628700801
aF0.5060954371299199
aF0.5060954371299199
aF0.5043538836642285
aF0.5060954371299199
aF0.498780912574016
aF0.5060954371299199
aF0.4994775339602926
aF0.5060954371299199
aF0.5060954371299199
aF0.5060954371299199
aF0.5060954371299199
aF0.5060954371299199
aF0.5060954371299199
aF0.5060954371299199
aF0.5060954371299199
aF0.5053988157436433
aF0.4939045628700801
aF0.5060954371299199
aF0.5060954371299199
aF0.5060954371299199
aF0.5060954371299199
aF0.4939045628700801
aF0.49738766980146293
aF0.5060954371299199
aF0.5060954371299199
aF0.5005224660397074
aF0.4939045628700801
aF0.5057471264367817
aF0.5060954371299199
aF0.5060954371299199
aF0.5060954371299199
aF0.5252525252525253
aF0.5060954371299199
aF0.5060954371299199
aF0.5060954371299199
aF0.5081853012887496
aF0.4939045628700801
aF0.5060954371299199
aF0.5060954371299199
aF0.5064437478230581
aF0.5060954371299199
aF0.5060954371299199
aF0.5071403692093347
aF0.5395332636711947
aF0.5060954371299199
aF0.5060954371299199
aF0.5534656913967259
aF0.49703935910832464
aF0.5029606408916754
aF0.5060954371299199
aF0.5026123301985371
aF0.5067920585161965
aF0.5454545454545454
aF0.5060954371299199
aF0.5060954371299199
aF0.5175896900034831
aF0.4939045628700801
aF0.5276907001044933
aF0.5060954371299199
aF0.5060954371299199
aF0.5325670498084292
aF0.4939045628700801
aF0.5060954371299199
aF0.5060954371299199
aF0.5060954371299199
aF0.5060954371299199
aF0.5057471264367817
aF0.5060954371299199
aF0.5060954371299199
aF0.5060954371299199
aF0.5092302333681644
aF0.4939045628700801
aF0.5179380006966214
aF0.5060954371299199
aF0.5053988157436433
aF0.5060954371299199
aF0.5060954371299199
aF0.5060954371299199
aF0.5060954371299199
aF0.4942528735632184
aF0.5297805642633229
aF0.5060954371299199
aF0.524904214559387
aF0.4939045628700801
aF0.5060954371299199
aF0.501219087425984
aF0.5060954371299199
aF0.5060954371299199
aF0.5060954371299199
aF0.51619644723093
aF0.4939045628700801
aF0.5060954371299199
aF0.5060954371299199
aF0.5060954371299199
aF0.5060954371299199
aF0.5060954371299199
aF0.5078369905956113
aF0.4939045628700801
aF0.5060954371299199
aF0.5402298850574713
aF0.5060954371299199
aF0.5182863113897597
aF0.5060954371299199
aF0.5060954371299199
aF0.5064437478230581
aF0.5060954371299199
aF0.509926854754441
aF0.5060954371299199
aF0.5060954371299199
aF0.5060954371299199
aF0.5060954371299199
aF0.4939045628700801
aF0.5141065830721003
aF0.511320097526994
aF0.5060954371299199
aF0.5060954371299199
aF0.5060954371299199
aF0.5064437478230581
aF0.5060954371299199
aF0.4942528735632184
aF0.5256008359456635
aF0.5060954371299199
aF0.5060954371299199
aF0.5060954371299199
aF0.5064437478230581
aF0.5060954371299199
aF0.5949146638801811
aF0.533611981887844
aF0.49738766980146293
aF0.5060954371299199
aF0.5130616509926855
aF0.5060954371299199
aF0.5060954371299199
aF0.6227795193312434
aF0.5060954371299199
aF0.5283873214907697
aF0.5060954371299199
aF0.5060954371299199
aF0.5060954371299199
aF0.5559038662486938
aF0.5060954371299199
aF0.6349703935910832
aF0.5189829327760362
aF0.5464994775339603
aF0.5060954371299199
aF0.5060954371299199
aF0.5060954371299199
aF0.5033089515848137
aF0.5060954371299199
aF0.4998258446534309
aF0.5060954371299199
aF0.5060954371299199
aF0.5060954371299199
aF0.5297805642633229
aF0.5060954371299199
aF0.5060954371299199
aF0.5088819226750261
aF0.5060954371299199
aF0.5060954371299199
aF0.5060954371299199
aF0.5022640195053988
aF0.5060954371299199
aF0.5308254963427377
aF0.5743643329850227
aF0.49843260188087773
aF0.5231626610936956
aF0.5569487983281086
aF0.5308254963427377
aF0.5060954371299199
aF0.6154649947753396
aF0.5060954371299199
aF0.5060954371299199
aF0.5060954371299199
aF0.520027864855451
aF0.6415882967607106
aF0.5060954371299199
aF0.5060954371299199
aF0.5363984674329502
aF0.5060954371299199
aF0.5120167189132706
aF0.5154998258446535
aF0.5276907001044933
aF0.5496342737722049
aF0.5900383141762452
aF0.5478927203065134
aF0.5060954371299199
aF0.5060954371299199
aF0.5060954371299199
aF0.5060954371299199
aF0.49669104841518635
aF0.5060954371299199
aF0.5632183908045977
aF0.5468477882270986
aF0.5060954371299199
aF0.5060954371299199
aF0.5060954371299199
aF0.6095437129919888
aF0.5060954371299199
aF0.5060954371299199
aF0.5060954371299199
aF0.6158133054684779
aF0.5959595959595959
aF0.6151166840822013
aF0.5938697318007663
aF0.6015325670498084
aF0.5060954371299199
aF0.5830721003134797
aF0.6074538488331592
aF0.6116335771508186
aF0.6158133054684779
aF0.599791013584117
aF0.5060954371299199
aF0.5060954371299199
aF0.6074538488331592
aF0.5060954371299199
aF0.5444096133751306
aF0.5060954371299199
aF0.59108324625566
aF0.5060954371299199
aF0.5823754789272031
aF0.5060954371299199
aF0.5060954371299199
aF0.5231626610936956
aF0.5541623127830024
aF0.5768025078369906
aF0.543712991988854
aF0.5350052246603971
aF0.5583420411006618
aF0.5889933820968304
aF0.5060954371299199
aF0.6238244514106583
aF0.6067572274468827
aF0.5593869731800766
aF0.5301288749564612
aF0.5332636711947056
aF0.6032741205154998
aF0.6071055381400209
aF0.6001393242772554
aF0.5228143504005573
aF0.6182514803204459
aF0.6130268199233716
aF0.5370950888192267
aF0.5566004876349704
aF0.6116335771508186
aF0.5646116335771508
aF0.6147683733890631
aF0.5903866248693835
aF0.5921281783350749
aF0.6224312086381052
aF0.5238592824799722
aF0.6011842563566702
aF0.6154649947753396
aF0.5357018460466736
aF0.5426680599094392
aF0.5639150121908743
aF0.5060954371299199
aF0.5252525252525253
aF0.512365029606409
aF0.5294322535701846
aF0.5510275165447579
aF0.5471960989202369
aF0.569836293974225
aF0.5882967607105538
aF0.5862068965517241
aF0.569836293974225
aF0.542319749216301
aF0.6074538488331592
aF0.6213862765586904
aF0.5680947405085336
aF0.5060954371299199
aF0.5315221177290143
aF0.6151166840822013
aF0.5060954371299199
aF0.6161616161616161
aF0.5283873214907697
aF0.6206896551724138
aF0.5506792058516197
aF0.5795889933820968
aF0.5060954371299199
aF0.599791013584117
aF0.5562521769418322
aF0.557297109021247
aF0.5566004876349704
aF0.5900383141762452
aF0.5942180424939045
aF0.5287356321839081
aF0.59108324625566
aF0.5733194009056078
aF0.5583420411006618
aF0.576105886450714
aF0.6095437129919888
aF0.5060954371299199
aF0.5562521769418322
aF0.5165447579240683
aF0.5586903517938001
aF0.5579937304075235
aF0.6011842563566702
aF0.5844653430860327
aF0.5060954371299199
aF0.5994427028909788
aF0.5778474399164054
aF0.5618251480320445
aF0.5733194009056078
aF0.6151166840822013
aF0.5600835945663531
aF0.5653082549634274
aF0.5586903517938001
aF0.6248693834900731
aF0.5172413793103449
aF0.5837687216997561
aF0.6057122953674677
aF0.5388366422849181
aF0.5625217694183211
aF0.610936955764542
aF0.6224312086381052
aF0.5625217694183211
aF0.5586903517938001
aF0.6245210727969349
aF0.5426680599094392
aF0.6287008011145943
aF0.5531173807035876
aF0.6276558690351793
aF0.5687913618948102
aF0.6147683733890631
aF0.5705329153605015
aF0.5694879832810867
aF0.5691396725879484
aF0.5646116335771508
aF0.5987460815047022
aF0.5844653430860327
aF0.6238244514106583
aF0.6112852664576802
aF0.5583420411006618
aF0.6179031696273075
aF0.5980494601184256
aF0.5649599442702891
aF0.5956112852664577
aF0.5670498084291188
aF0.576105886450714
aF0.6370602577499129
aF0.5691396725879484
aF0.5670498084291188
aF0.6255660048763497
aF0.5677464298153954
aF0.6081504702194357
aF0.587251828631139
aF0.6165099268547545
aF0.619644723092999
aF0.5834204110066179
aF0.5621734587251829
aF0.5628700801114594
aF0.6436781609195402
aF0.6353187042842215
aF0.6377568791361895
aF0.6116335771508186
aF0.501219087425984
aF0.6367119470567747
aF0.6370602577499129
aF0.6185997910135841
aF0.5865552072448624
aF0.6339254615116684
aF0.6102403343782654
aF0.6342737722048067
aF0.6241727621037966
aF0.6482061999303379
aF0.6614420062695925
aF0.6325322187391152
aF0.6489028213166145
aF0.6363636363636364
aF0.6314872866597004
aF0.6314872866597004
aF0.566004876349704
aF0.6088470916057123
aF0.5586903517938001
aF0.5154998258446535
aF0.6140717520027865
aF0.6565656565656566
aF0.6715430163706025
aF0.6614420062695925
aF0.5269940787182167
aF0.644723092998955
aF0.5726227795193313
aF0.5600835945663531
aF0.5060954371299199
aF0.6353187042842215
aF0.6506443747823059
aF0.5060954371299199
aF0.6363636363636364
aF0.5015673981191222
aF0.4939045628700801
aF0.5060954371299199
aF0.6443747823058168
aF0.6231278300243818
aF0.6614420062695925
aF0.6509926854754441
aF0.6475095785440613
aF0.6293974225008708
aF0.5290839428770463
aF0.5036572622779519
aF0.4939045628700801
aF0.6401950539881575
aF0.6485545106234761
aF0.6440264716126786
aF0.6502960640891675
aF0.5088819226750261
aF0.6436781609195402
aF0.6600487634970393
aF0.4939045628700801
aF0.6489028213166145
aF0.6475095785440613
aF0.6412399860675723
aF0.5019157088122606
aF0.6495994427028909
aF0.5060954371299199
aF0.5294322535701846
aF0.6506443747823059
aF0.658307210031348
aF0.6398467432950191
aF0.5060954371299199
aF0.6485545106234761
aF0.6241727621037966
aF0.5060954371299199
aF0.5081853012887496
aF0.5329153605015674
aF0.6565656565656566
aF0.5060954371299199
aF0.6579588993382097
aF0.5395332636711947
aF0.6502960640891675
aF0.6464646464646465
aF0.6565656565656566
aF0.5618251480320445
aF0.6482061999303379
aF0.6509926854754441
aF0.634622082897945
aF0.6656217345872518
aF0.6436781609195402
aF0.6516893068617207
aF0.6527342389411355
aF0.507488679902473
aF0.653430860327412
aF0.5245559038662487
aF0.6527342389411355
aF0.6502960640891675
aF0.6527342389411355
aF0.6513409961685823
aF0.6736328805294323
aF0.6537791710205503
aF0.6426332288401254
aF0.5060954371299199
aF0.6485545106234761
aF0.6450714036920934
aF0.6624869383490073
aF0.6335771508185302
aF0.632183908045977
aF0.6652734238941136
aF0.5325670498084292
aF0.6509926854754441
aF0.6687565308254964
aF0.668408220132358
aF0.6502960640891675
aF0.6527342389411355
aF0.6593521421107628
aF0.6443747823058168
aF0.6551724137931034
aF0.653430860327412
aF0.658307210031348
aF0.6603970741901777
aF0.6656217345872518
aF0.4939045628700801
aF0.6506443747823059
aF0.6607453848833159
aF0.6513409961685823
aF0.667014977359805
aF0.6562173458725182
aF0.6377568791361895
aF0.6635318704284221
aF0.6809474050853361
aF0.6401950539881575
aF0.5377917102055033
aF0.6715430163706025
aF0.6677115987460815
aF0.6631835597352839
aF0.647161267850923
aF0.6492511320097527
aF0.6666666666666666
aF0.668408220132358
aF0.5235109717868338
aF0.66597004528039
aF0.6701497735980495
aF0.5374433995123651
aF0.668408220132358
aF0.6753744339951236
aF0.644723092998955
aF0.6691048415186346
aF0.6691048415186346
aF0.5060954371299199
aF0.6687565308254964
aF0.6495994427028909
aF0.6638801811215604
aF0.6729362591431557
aF0.64576802507837
aF0.664576802507837
aF0.6746778126088471
aF0.6694531522117729
aF0.6541274817136886
aF0.6579588993382097
aF0.6617903169627307
aF0.6746778126088471
aF0.6652734238941136
aF0.6802507836990596
aF0.5503308951584813
aF0.6701497735980495
aF0.6792058516196448
aF0.6760710553814002
aF0.6649251132009752
aF0.6781609195402298
aF0.6429815395332636
aF0.670846394984326
aF0.6673632880529432
aF0.6691048415186346
aF0.6666666666666666
aF0.6750261233019854
aF0.6562173458725182
aF0.668408220132358
aF0.6593521421107628
aasS'CNN_Uncertainty'
p9
(lp10
(lp11
F0.5060954371299199
aF0.5060954371299199
aF0.5060954371299199
aF0.5060954371299199
aF0.5060954371299199
aF0.5060954371299199
aF0.5060954371299199
aF0.5060954371299199
aF0.5060954371299199
aF0.5060954371299199
aF0.5060954371299199
aF0.5060954371299199
aF0.5060954371299199
aF0.5060954371299199
aF0.5060954371299199
aF0.5060954371299199
aF0.5060954371299199
aF0.5060954371299199
aF0.5060954371299199
aF0.5060954371299199
aF0.5060954371299199
aF0.5060954371299199
aF0.5060954371299199
aF0.5060954371299199
aF0.5060954371299199
aF0.5060954371299199
aF0.5060954371299199
aF0.5060954371299199
aF0.5060954371299199
aF0.5060954371299199
aF0.5060954371299199
aF0.5060954371299199
aF0.5060954371299199
aF0.5060954371299199
aF0.5060954371299199
aF0.5060954371299199
aF0.5060954371299199
aF0.5060954371299199
aF0.5060954371299199
aF0.5060954371299199
aF0.5060954371299199
aF0.5060954371299199
aF0.5060954371299199
aF0.5060954371299199
aF0.5060954371299199
aF0.5060954371299199
aF0.5060954371299199
aF0.5060954371299199
aF0.5060954371299199
aF0.5060954371299199
aF0.5060954371299199
aF0.5060954371299199
aF0.5060954371299199
aF0.5060954371299199
aF0.5060954371299199
aF0.5060954371299199
aF0.5005224660397074
aF0.5060954371299199
aF0.5060954371299199
aF0.5043538836642285
aF0.5053988157436433
aF0.5060954371299199
aF0.5050505050505051
aF0.5060954371299199
aF0.5426680599094392
aF0.5040055729710902
aF0.5060954371299199
aF0.524904214559387
aF0.5057471264367817
aF0.5060954371299199
aF0.5060954371299199
aF0.5060954371299199
aF0.5350052246603971
aF0.5060954371299199
aF0.5060954371299199
aF0.5060954371299199
aF0.5060954371299199
aF0.5384883315917799
aF0.507488679902473
aF0.5057471264367817
aF0.5060954371299199
aF0.5060954371299199
aF0.5047021943573667
aF0.5064437478230581
aF0.5109717868338558
aF0.5053988157436433
aF0.5060954371299199
aF0.522466039707419
aF0.5036572622779519
aF0.5280390107976315
aF0.5067920585161965
aF0.5067920585161965
aF0.5088819226750261
aF0.5109717868338558
aF0.5426680599094392
aF0.539881574364333
aF0.5060954371299199
aF0.5318704284221526
aF0.5158481365377917
aF0.5036572622779519
aF0.5353535353535354
aF0.5332636711947056
aF0.5280390107976315
aF0.5217694183211424
aF0.5036572622779519
aF0.5060954371299199
aF0.5318704284221526
aF0.5283873214907697
aF0.5168930686172065
aF0.5193312434691745
aF0.5496342737722049
aF0.5412748171368861
aF0.5060954371299199
aF0.5165447579240683
aF0.5343086032741206
aF0.5534656913967259
aF0.5262974573319401
aF0.5214211076280042
aF0.54858934169279
aF0.5283873214907697
aF0.5377917102055033
aF0.5471960989202369
aF0.512365029606409
aF0.5405781957506095
aF0.5322187391152908
aF0.5489376523859283
aF0.5109717868338558
aF0.5134099616858238
aF0.5304771856495994
aF0.5235109717868338
aF0.5496342737722049
aF0.5367467781260885
aF0.5667014977359804
aF0.5235109717868338
aF0.5231626610936956
aF0.5092302333681644
aF0.5060954371299199
aF0.5308254963427377
aF0.5492859630790665
aF0.5357018460466736
aF0.5252525252525253
aF0.5343086032741206
aF0.5478927203065134
aF0.5033089515848137
aF0.5217694183211424
aF0.5071403692093347
aF0.5531173807035876
aF0.5350052246603971
aF0.5419714385231627
aF0.5332636711947056
aF0.5451062347614072
aF0.5304771856495994
aF0.5259491466388018
aF0.5384883315917799
aF0.5586903517938001
aF0.5256008359456635
aF0.5496342737722049
aF0.5235109717868338
aF0.5646116335771508
aF0.5471960989202369
aF0.5148032044583769
aF0.5301288749564612
aF0.542319749216301
aF0.5593869731800766
aF0.5468477882270986
aF0.5503308951584813
aF0.5468477882270986
aF0.5757575757575758
aF0.5451062347614072
aF0.5492859630790665
aF0.5684430512016719
aF0.5496342737722049
aF0.5625217694183211
aF0.543712991988854
aF0.5628700801114594
aF0.5238592824799722
aF0.5625217694183211
aF0.5576454197143852
aF0.5844653430860327
aF0.5708812260536399
aF0.5722744688261929
aF0.5722744688261929
aF0.5555555555555556
aF0.5454545454545454
aF0.5816788575409265
aF0.5231626610936956
aF0.5778474399164054
aF0.5921281783350749
aF0.5555555555555556
aF0.5590386624869383
aF0.5531173807035876
aF0.5468477882270986
aF0.5583420411006618
aF0.5579937304075235
aF0.5426680599094392
aF0.5583420411006618
aF0.5499825844653431
aF0.5433646812957158
aF0.5078369905956113
aF0.5451062347614072
aF0.5667014977359804
aF0.5499825844653431
aF0.5520724486241727
aF0.5262974573319401
aF0.58098223615465
aF0.5374433995123651
aF0.5168930686172065
aF0.5576454197143852
aF0.5538140020898642
aF0.5757575757575758
aF0.5586903517938001
aF0.5858585858585859
aF0.5552072448624172
aF0.5614768373389063
aF0.5499825844653431
aF0.5851619644723093
aF0.4998258446534309
aF0.533611981887844
aF0.5506792058516197
aF0.5545106234761407
aF0.5628700801114594
aF0.5440613026819924
aF0.576105886450714
aF0.5889933820968304
aF0.5768025078369906
aF0.5451062347614072
aF0.5722744688261929
aF0.5405781957506095
aF0.5555555555555556
aF0.5217694183211424
aF0.59108324625566
aF0.5283873214907697
aF0.5903866248693835
aF0.5440613026819924
aF0.5566004876349704
aF0.54858934169279
aF0.552420759317311
aF0.5478927203065134
aF0.5781957506095438
aF0.5604319052594915
aF0.5590386624869383
aF0.5667014977359804
aF0.5531173807035876
aF0.5339602925809822
aF0.5510275165447579
aF0.5604319052594915
aF0.5527690700104493
aF0.5628700801114594
aF0.5851619644723093
aF0.563566701497736
aF0.5440613026819924
aF0.5586903517938001
aF0.5680947405085336
aF0.5590386624869383
aF0.554858934169279
aF0.5667014977359804
aF0.5235109717868338
aF0.5593869731800766
aF0.5726227795193313
aF0.59108324625566
aF0.5593869731800766
aF0.5740160222918843
aF0.5576454197143852
aF0.5931731104144897
aF0.5983977708115639
aF0.5823754789272031
aF0.5990943921978404
aF0.5754092650644375
aF0.6015325670498084
aF0.5426680599094392
aF0.6011842563566702
aF0.5816788575409265
aF0.5332636711947056
aF0.588645071403692
aF0.5903866248693835
aF0.567398119122257
aF0.5722744688261929
aF0.5956112852664577
aF0.6137234413096482
aF0.6088470916057123
aF0.5597352838732149
aF0.5837687216997561
aF0.5802856147683734
aF0.6116335771508186
aF0.5182863113897597
aF0.6036224312086381
aF0.5656565656565656
aF0.5788923719958202
aF0.6057122953674677
aF0.5862068965517241
aF0.5468477882270986
aF0.5813305468477882
aF0.602229188436085
aF0.6046673632880529
aF0.5827237896203413
aF0.5928247997213515
aF0.619644723092999
aF0.5799373040752351
aF0.5545106234761407
aF0.5663531870428422
aF0.5705329153605015
aF0.6025774991292233
aF0.6147683733890631
aF0.576105886450714
aF0.5499825844653431
aF0.5973528387321491
aF0.6206896551724138
aF0.5830721003134797
aF0.5792406826889586
aF0.6175548589341693
aF0.5858585858585859
aF0.587251828631139
aF0.5691396725879484
aF0.5607802159526297
aF0.6064089167537443
aF0.62347614071752
aF0.5736677115987461
aF0.584813653779171
aF0.5928247997213515
aF0.5736677115987461
aF0.6018808777429467
aF0.576105886450714
aF0.5806339254615117
aF0.6116335771508186
aF0.6154649947753396
aF0.6081504702194357
aF0.5928247997213515
aF0.6025774991292233
aF0.6102403343782654
aF0.6015325670498084
aF0.6057122953674677
aF0.6137234413096482
aF0.6192964123998607
aF0.5754092650644375
aF0.5921281783350749
aF0.5781957506095438
aF0.49843260188087773
aF0.6036224312086381
aF0.5740160222918843
aF0.6067572274468827
aF0.587251828631139
aF0.5907349355625218
aF0.6182514803204459
aF0.6356670149773598
aF0.6179031696273075
aF0.5858585858585859
aF0.5928247997213515
aF0.6050156739811913
aF0.6091954022988506
aF0.5694879832810867
aF0.5712295367467781
aF0.6206896551724138
aF0.6067572274468827
aF0.6140717520027865
aF0.6001393242772554
aF0.6199930337861372
aF0.5973528387321491
aF0.619644723092999
aF0.6053639846743295
aF0.6050156739811913
aF0.5667014977359804
aF0.6307906652734239
aF0.6199930337861372
aF0.6001393242772554
aF0.6119818878439568
aF0.6273075583420411
aF0.5663531870428422
aF0.5531173807035876
aF0.6266109369557645
aF0.610936955764542
aF0.6046673632880529
aF0.6248693834900731
aF0.6213862765586904
aF0.6238244514106583
aF0.6032741205154998
aF0.6161616161616161
aF0.6098920236851272
aF0.6269592476489029
aF0.59108324625566
aF0.6147683733890631
aF0.6140717520027865
aF0.6091954022988506
aF0.6154649947753396
aF0.5788923719958202
aF0.6245210727969349
aF0.5879484500174156
aF0.5942180424939045
aF0.5799373040752351
aF0.6203413444792755
aF0.6165099268547545
aF0.6182514803204459
aF0.6137234413096482
aF0.6293974225008708
aF0.6401950539881575
aF0.6192964123998607
aF0.6001393242772554
aF0.6499477533960293
aF0.6273075583420411
aF0.6273075583420411
aF0.6217345872518286
aF0.6297457331940091
aF0.6415882967607106
aF0.5545106234761407
aF0.6185997910135841
aF0.6245210727969349
aF0.6231278300243818
aF0.6185997910135841
aF0.6325322187391152
aF0.6381051898293277
aF0.6032741205154998
aF0.584813653779171
aF0.6161616161616161
aF0.6064089167537443
aF0.6231278300243818
aF0.6224312086381052
aF0.6394984326018809
aF0.6318355973528388
aF0.5942180424939045
aF0.6328805294322536
aF0.6238244514106583
aF0.6130268199233716
aF0.6091954022988506
aF0.6185997910135841
aF0.619644723092999
aF0.6339254615116684
aF0.6266109369557645
aF0.6314872866597004
aF0.6105886450714036
aF0.6053639846743295
aF0.6339254615116684
aF0.6119818878439568
aF0.6304423545802856
aF0.563566701497736
aF0.6238244514106583
aF0.6217345872518286
aF0.6203413444792755
aF0.6119818878439568
aF0.6273075583420411
aF0.6523859282479972
aF0.6311389759665622
aF0.6238244514106583
aF0.6468129571577848
aF0.5802856147683734
aF0.6123301985370951
aF0.634622082897945
aF0.6468129571577848
aF0.6119818878439568
aF0.6158133054684779
aF0.6105886450714036
aF0.6450714036920934
aF0.6123301985370951
aF0.6304423545802856
aF0.5287356321839081
aF0.6332288401253918
aF0.6158133054684779
aF0.6394984326018809
aF0.49634273772204807
aF0.6499477533960293
aF0.5788923719958202
aF0.6245210727969349
aF0.6071055381400209
aF0.6203413444792755
aF0.6565656565656566
aF0.6123301985370951
aF0.6363636363636364
aF0.6224312086381052
aF0.6339254615116684
aF0.6088470916057123
aF0.6161616161616161
aF0.6405433646812957
aF0.6032741205154998
aF0.621037965865552
aF0.634622082897945
aF0.6273075583420411
aF0.6238244514106583
aF0.6482061999303379
aF0.6520376175548589
aF0.6412399860675723
aF0.6325322187391152
aF0.621037965865552
aF0.6078021595262975
aF0.6137234413096482
aF0.6248693834900731
aF0.634622082897945
aF0.6015325670498084
aF0.6454197143852316
aF0.64576802507837
aF0.6182514803204459
aF0.6381051898293277
aF0.5649599442702891
aF0.64576802507837
aF0.6300940438871473
aF0.6039707419017764
aF0.634622082897945
aF0.6269592476489029
aF0.6394984326018809
aF0.6043190525949147
aF0.6391501219087427
aF0.6290491118077325
aF0.6328805294322536
aF0.6227795193312434
aF0.6367119470567747
aF0.6328805294322536
aF0.6360153256704981
aF0.6095437129919888
aF0.658307210031348
aF0.6454197143852316
aF0.6280041797283177
aF0.6353187042842215
aF0.6300940438871473
aF0.6384535005224661
aF0.6050156739811913
aF0.6478578892371996
aF0.6569139672587948
aF0.6199930337861372
aF0.6297457331940091
aF0.6206896551724138
aF0.6593521421107628
aF0.6266109369557645
aF0.640891675374434
aF0.6161616161616161
aF0.6401950539881575
aF0.6482061999303379
aF0.6482061999303379
aF0.6203413444792755
aF0.6478578892371996
aF0.6569139672587948
aF0.6293974225008708
aF0.617206548241031
aF0.6398467432950191
aF0.6516893068617207
aF0.6509926854754441
aF0.617206548241031
aF0.6349703935910832
aF0.668408220132358
aF0.6475095785440613
aF0.6631835597352839
aF0.6551724137931034
aF0.6499477533960293
aF0.6499477533960293
aF0.6624869383490073
aF0.6307906652734239
aF0.6401950539881575
aF0.6154649947753396
aF0.6468129571577848
aF0.6398467432950191
aF0.6356670149773598
aF0.6415882967607106
aF0.6656217345872518
aF0.6621386276558691
aF0.6516893068617207
aF0.6443747823058168
aF0.6698014629049112
aF0.6666666666666666
aF0.6548241030999652
aF0.6555207244862418
aF0.6335771508185302
aF0.6562173458725182
aF0.6736328805294323
aF0.6388018112156043
aF0.6422849181469871
aF0.6422849181469871
aF0.6562173458725182
aF0.644723092998955
aF0.6516893068617207
aF0.6394984326018809
aF0.6238244514106583
aF0.6628352490421456
aF0.6652734238941136
aF0.6475095785440613
aF0.6297457331940091
aF0.6698014629049112
aF0.6429815395332636
aF0.6335771508185302
aF0.6388018112156043
aF0.6450714036920934
aF0.65586903517938
aF0.6607453848833159
aF0.5931731104144897
aF0.6440264716126786
aF0.6603970741901777
aF0.6701497735980495
aF0.6353187042842215
aF0.653430860327412
aF0.6374085684430512
aF0.6597004528039011
aF0.6590038314176245
aF0.6398467432950191
aF0.6516893068617207
aF0.6530825496342738
aF0.6597004528039011
aF0.6548241030999652
aF0.6607453848833159
aF0.6624869383490073
aF0.644723092998955
aF0.6509926854754441
aF0.6569139672587948
aF0.664576802507837
aF0.6642284918146987
aF0.6468129571577848
aF0.65586903517938
aF0.6436781609195402
aF0.6287008011145943
aF0.6597004528039011
aF0.6624869383490073
aF0.6461163357715082
aF0.6562173458725182
aF0.6778126088470916
aF0.6499477533960293
aF0.6422849181469871
aF0.66597004528039
aF0.6422849181469871
aF0.6530825496342738
aF0.6621386276558691
aF0.6652734238941136
aF0.6656217345872518
aF0.6436781609195402
aF0.6489028213166145
aF0.6816440264716127
aF0.668408220132358
aF0.6847788227098572
aF0.6464646464646465
aF0.6750261233019854
aF0.6691048415186346
aF0.6718913270637409
aF0.6586555207244862
aF0.6718913270637409
aF0.6593521421107628
aF0.6649251132009752
aF0.6642284918146987
aF0.6551724137931034
aF0.6516893068617207
aF0.6405433646812957
aF0.670846394984326
aF0.6603970741901777
aF0.6687565308254964
aF0.6537791710205503
aF0.6656217345872518
aF0.6788575409265064
aF0.6516893068617207
aF0.6732845698362939
aF0.6677115987460815
aF0.6450714036920934
aF0.6830372692441657
aF0.6440264716126786
aF0.6520376175548589
aF0.6482061999303379
aF0.6732845698362939
aF0.6273075583420411
aF0.6325322187391152
aF0.6638801811215604
aF0.6537791710205503
aF0.6426332288401254
aF0.6548241030999652
aF0.6617903169627307
aF0.6478578892371996
aF0.6482061999303379
aF0.6342737722048067
aF0.6586555207244862
aF0.6569139672587948
aF0.6360153256704981
aF0.6381051898293277
aF0.6461163357715082
aF0.6426332288401254
aF0.6495994427028909
aF0.6367119470567747
aF0.6468129571577848
aF0.6541274817136886
aF0.6506443747823059
aF0.6638801811215604
aF0.6516893068617207
aF0.6638801811215604
aF0.6635318704284221
aF0.6691048415186346
aF0.6502960640891675
aF0.6562173458725182
aF0.6677115987460815
aF0.6666666666666666
aF0.6624869383490073
aF0.6614420062695925
aF0.6638801811215604
aF0.6764193660745385
aF0.6861720654824103
aF0.6931382793451759
aF0.6704980842911877
aF0.6729362591431557
aF0.6725879484500175
aF0.6704980842911877
aF0.6809474050853361
aF0.6802507836990596
aF0.6851271334029955
aF0.667014977359805
aF0.6927899686520376
aF0.6614420062695925
aF0.6847788227098572
aF0.6718913270637409
aF0.6788575409265064
aF0.6778126088470916
aF0.6851271334029955
aF0.6823406478578893
aF0.6931382793451759
aF0.6576105886450714
aF0.679554162312783
aF0.6663183559735284
aF0.6788575409265064
aF0.6701497735980495
aF0.6715430163706025
aF0.6725879484500175
aF0.6617903169627307
aF0.6698014629049112
aF0.6635318704284221
aF0.6551724137931034
aF0.6750261233019854
aassS'SGD'
p12
(dp13
g3
(lp14
(lp15
cnumpy.core.multiarray
scalar
p16
(cnumpy
dtype
p17
(S'f8'
p18
I0
I1
tp19
Rp20
(I3
S'<'
p21
NNNI-1
I-1
I0
tp22
bS'rk\x8d\xa2\xa7\x98\xe0?'
p23
tp24
Rp25
ag16
(g20
S'X\x91n\x18\x82\x9b\xe0?'
p26
tp27
Rp28
ag16
(g20
S' (\xb2^\xf6\xf3\xe0?'
p29
tp30
Rp31
ag16
(g20
S'\x9b\xe5\x17\xac:\x02\xe1?'
p32
tp33
Rp34
ag16
(g20
S'\x81\x0b\xf9!\x15\x05\xe1?'
p35
tp36
Rp37
ag16
(g20
S'\xbd\x8f\xec\xf5\x965\xe1?'
p38
tp39
Rp40
ag16
(g20
S' (\xb2^\xf6\xf3\xe0?'
p41
tp42
Rp43
ag16
(g20
S'LW\xbb\r\xca\n\xe1?'
p44
tp45
Rp46
ag16
(g20
S'1}\x9c\x83\xa4\r\xe1?'
p47
tp48
Rp49
ag16
(g20
S'\x92`\xe3F\xc3\x1e\xe1?'
p50
tp51
Rp52
ag16
(g20
S't\xd1E\x17]t\xe1?'
p53
tp54
Rp55
ag16
(g20
S'?\x1d\x08\x03\x12z\xe1?'
p56
tp57
Rp58
ag16
(g20
S'\xcb/Xu\x04\xa2\xe1?'
p59
tp60
Rp61
ag16
(g20
S'\x00\xe4\x95\x89O\x9c\xe1?'
p62
tp63
Rp64
ag16
(g20
S'\xc1\xaa#\x10\x8d\xbe\xe1?'
p65
tp66
Rp67
ag16
(g20
S'\x119\x80\xae\xfd\xb5\xe1?'
p68
tp69
Rp70
ag16
(g20
S'y\xec|1S\xfd\xe1?'
p71
tp72
Rp73
ag16
(g20
S'r\x1c\xc7q\x1c\xc7\xe1?'
p74
tp75
Rp76
ag16
(g20
S'\x9b\x96Q{\xaf0\xe2?'
p77
tp78
Rp79
ag16
(g20
S'\x8aAgV\x01\x17\xe2?'
p80
tp81
Rp82
ag16
(g20
S'\xa4\x1b\x86\xe0&\x14\xe2?'
p83
tp84
Rp85
ag16
(g20
S'\x02JN\xfe\x04x\xe2?'
p86
tp87
Rp88
ag16
(g20
S'\xd0J\x8f\x8f\xfa*\xe2?'
p89
tp90
Rp91
ag16
(g20
S'\xc3\x10\xdc\x84B\x9a\xe2?'
p92
tp93
Rp94
ag16
(g20
S'\xa6\x81>U\xdc\xef\xe2?'
p95
tp96
Rp97
ag16
(g20
S'\xa6\x81>U\xdc\xef\xe2?'
p98
tp99
Rp100
ag16
(g20
S'O#,\xf74\xc2\xe2?'
p101
tp102
Rp103
ag16
(g20
S'\xcd\x95\x10\xea\xb9}\xe2?'
p104
tp105
Rp106
ag16
(g20
S'Y\xa8`\\\xac\xa5\xe2?'
p107
tp108
Rp109
ag16
(g20
S'\xf1\xf4c\xd9V^\xe2?'
p110
tp111
Rp112
ag16
(g20
S'\xd7\x1aEO1a\xe2?'
p113
tp114
Rp115
ag16
(g20
S'\x9f\xb1\x88\x95\xa5\xb9\xe2?'
p116
tp117
Rp118
ag16
(g20
S'\xde\xea\xfa\x0eh\x97\xe2?'
p119
tp120
Rp121
ag16
(g20
S'\xd4e\xc6\xa9\xf0\xb3\xe2?'
p122
tp123
Rp124
ag16
(g20
S'{R5\xa6\x08\xd9\xe2?'
p125
tp126
Rp127
ag16
(g20
S'\xb0\x06s\xbaS\xd3\xe2?'
p128
tp129
Rp130
ag16
(g20
S'j\xfdJ\x81Z\xbf\xe2?'
p131
tp132
Rp133
ag16
(g20
S'\x85\xd7i\x0b\x80\xbc\xe2?'
p134
tp135
Rp136
ag16
(g20
S'\x00\x95\xcfX\xc4\xca\xe2?'
p137
tp138
Rp139
ag16
(g20
S'\xc1[]\xdf\x01\xed\xe2?'
p140
tp141
Rp142
ag16
(g20
S'\xb7\xd6(z\x8a\t\xe3?'
p143
tp144
Rp145
ag16
(g20
S'\xc8+\x13\x9f8#\xe3?'
p146
tp147
Rp148
ag16
(g20
S'o\x18\x82\x9bPH\xe3?'
p149
tp150
Rp151
ag16
(g20
S'Mn\xadQ\xf4\x14\xe3?'
p152
tp153
Rp154
ag16
(g20
S'\x0e5;\xd817\xe3?'
p155
tp156
Rp157
ag16
(g20
S'^\xc3\x97v\xa2.\xe3?'
p158
tp159
Rp160
ag16
(g20
S'\xbe\xa6\xde9\xc1?\xe3?'
p161
tp162
Rp163
ag16
(g20
S')\x0fZbW4\xe3?'
p164
tp165
Rp166
ag16
(g20
S'\x1f\x8a%\xfd\xdfP\xe3?'
p167
tp168
Rp169
ag16
(g20
S'\x89\xf2\xa0%vE\xe3?'
p170
tp171
Rp172
ag16
(g20
S'0\xdf\x0f"\x8ej\xe3?'
p173
tp174
Rp175
ag16
(g20
S'T>c\x11+K\xe3?'
p176
tp177
Rp178
ag16
(g20
S'\x0e5;\xd817\xe3?'
p179
tp180
Rp181
ag16
(g20
S'\xa4\xcc\xbf\xaf\x9bB\xe3?'
p182
tp183
Rp184
ag16
(g20
S'\xbe\xa6\xde9\xc1?\xe3?'
p185
tp186
Rp187
ag16
(g20
S'9dD\x87\x05N\xe3?'
p188
tp189
Rp190
ag16
(g20
S'gH\xcc\xdb\x19\x12\xe3?'
p191
tp192
Rp193
ag16
(g20
S'\xadQ\xf4\x14\x13&\xe3?'
p194
tp195
Rp196
ag16
(g20
S'9dD\x87\x05N\xe3?'
p197
tp198
Rp199
ag16
(g20
S'\xa4\xcc\xbf\xaf\x9bB\xe3?'
p200
tp201
Rp202
ag16
(g20
S'\x04\xb0\x06s\xbaS\xe3?'
p203
tp204
Rp205
ag16
(g20
S'\xcf\xfb\xc8^oY\xe3?'
p206
tp207
Rp208
ag16
(g20
S'A4\xfaF<\x84\xe3?'
p209
tp210
Rp211
ag16
(g20
S'J\xb9.\xac\xb3g\xe3?'
p212
tp213
Rp214
ag16
(g20
S'\xbc\xf1_\x94\x80\x92\xe3?'
p215
tp216
Rp217
ag16
(g20
S'\x87="\x805\x98\xe3?'
p218
tp219
Rp220
ag16
(g20
S'Q\x89\xe4k\xea\x9d\xe3?'
p221
tp222
Rp223
ag16
(g20
S"\x13Pr\xf2'\xc0\xe3?"
p224
tp225
Rp226
ag16
(g20
S'\x97\x92\x0c\xa5\xe3\xb1\xe3?'
p227
tp228
Rp229
ag16
(g20
S'H\x04\xb0\x06s\xba\xe3?'
p230
tp231
Rp232
ag16
(g20
S'\x8e\r\xd8?l\xce\xe3?'
p233
tp234
Rp235
ag16
(g20
S"\x13Pr\xf2'\xc0\xe3?"
p236
tp237
Rp238
ag16
(g20
S'\xa8\xe7\xf6\xc9\x91\xcb\xe3?'
p239
tp240
Rp241
ag16
(g20
S'-*\x91|M\xbd\xe3?'
p242
tp243
Rp244
ag16
(g20
S'\xc3\xc1\x15T\xb7\xc8\xe3?'
p245
tp246
Rp247
ag16
(g20
S'\xdd\x9b4\xde\xdc\xc5\xe3?'
p248
tp249
Rp250
ag16
(g20
S'\xd4\x16\x00ye\xe2\xe3?'
p251
tp252
Rp253
ag16
(g20
S'b\xde\xce\x90\x98\xb7\xe3?'
p254
tp255
Rp256
ag16
(g20
S'\x9fb\xc2d\x1a\xe8\xe3?'
p257
tp258
Rp259
ag16
(g20
S'#\xa5\\\x17\xd6\xd9\xe3?'
p260
tp261
Rp262
ag16
(g20
S'\xee\xf0\x1e\x03\x8b\xdf\xe3?'
p263
tp264
Rp265
ag16
(g20
S'i\xae\x84P\xcf\xed\xe3?'
p266
tp267
Rp268
ag16
(g20
S'i\xae\x84P\xcf\xed\xe3?'
p269
tp270
Rp271
ag16
(g20
S'\xaf\xb7\xac\x89\xc8\x01\xe4?'
p272
tp273
Rp274
ag16
(g20
S'`)P\xebW\n\xe4?'
p275
tp276
Rp277
ag16
(g20
S'z\x03ou}\x07\xe4?'
p278
tp279
Rp280
ag16
(g20
S'\xe5k\xea\x9d\x13\xfc\xe3?'
p281
tp282
Rp283
ag16
(g20
S'`)P\xebW\n\xe4?'
p284
tp285
Rp286
ag16
(g20
S'\xd1a\x81\xd3$5\xe4?'
p287
tp288
Rp289
ag16
(g20
S'\x06\x16\xbf\xe7o/\xe4?'
p290
tp291
Rp292
ag16
(g20
S'`)P\xebW\n\xe4?'
p293
tp294
Rp295
ag16
(g20
S'+u\x12\xd7\x0c\x10\xe4?'
p296
tp297
Rp298
ag16
(g20
S'EO1a2\r\xe4?'
p299
tp300
Rp301
ag16
(g20
S'\xaf\xb7\xac\x89\xc8\x01\xe4?'
p302
tp303
Rp304
ag16
(g20
S'\xec;\xa0]J2\xe4?'
p305
tp306
Rp307
ag16
(g20
S'\xec;\xa0]J2\xe4?'
p308
tp309
Rp310
ag16
(g20
S'4\xfaF<\x84\xf3\xe3?'
p311
tp312
Rp313
ag16
(g20
S'\xa62x$Q\x1e\xe4?'
p314
tp315
Rp316
ag16
(g20
S'\xa62x$Q\x1e\xe4?'
p317
tp318
Rp319
ag16
(g20
S'`)P\xebW\n\xe4?'
p320
tp321
Rp322
ag16
(g20
S'z\x03ou}\x07\xe4?'
p323
tp324
Rp325
ag16
(g20
S';\xca\xfc\xfb\xba)\xe4?'
p326
tp327
Rp328
ag16
(g20
S'q~:\x10\x06$\xe4?'
p329
tp330
Rp331
ag16
(g20
S'g\xf9\x05\xab\x8e@\xe4?'
p332
tp333
Rp334
ag16
(g20
S'\x8bXY\x9a+!\xe4?'
p335
tp336
Rp337
ag16
(g20
S'\x81\xd3$5\xb4=\xe4?'
p338
tp339
Rp340
ag16
(g20
S'\xb7\x87bI\xff7\xe4?'
p341
tp342
Rp343
ag16
(g20
S'\xf3\x0bV\x1d\x81h\xe4?'
p344
tp345
Rp346
ag16
(g20
S'\xc7\xdcLn\xadQ\xe4?'
p347
tp348
Rp349
ag16
(g20
S'(\xc0\x931\xccb\xe4?'
p350
tp351
Rp352
ag16
(g20
S'(\xc0\x931\xccb\xe4?'
p353
tp354
Rp355
ag16
(g20
S'\xa3}\xf9~\x10q\xe4?'
p356
tp357
Rp358
ag16
(g20
S'\xbeW\x18\t6n\xe4?'
p359
tp360
Rp361
ag16
(g20
S'\xf3\x0bV\x1d\x81h\xe4?'
p362
tp363
Rp364
ag16
(g20
S'\xb4\xd2\xe3\xa3\xbe\x8a\xe4?'
p365
tp366
Rp367
ag16
(g20
S'\x99\xf8\xc4\x19\x99\x8d\xe4?'
p368
tp369
Rp370
ag16
(g20
S'\xcf\xac\x02.\xe4\x87\xe4?'
p371
tp372
Rp373
ag16
(g20
S'C\x9a\xb2\xbb\xf1_\xe4?'
p374
tp375
Rp376
ag16
(g20
S'\xa3}\xf9~\x10q\xe4?'
p377
tp378
Rp379
ag16
(g20
S'\x99\xf8\xc4\x19\x99\x8d\xe4?'
p380
tp381
Rp382
ag16
(g20
S'S\xef\x9c\xe0\x9fy\xe4?'
p383
tp384
Rp385
ag16
(g20
S'\xa3}\xf9~\x10q\xe4?'
p386
tp387
Rp388
ag16
(g20
S'S\xef\x9c\xe0\x9fy\xe4?'
p389
tp390
Rp391
ag16
(g20
S'\xbeW\x18\t6n\xe4?'
p392
tp393
Rp394
ag16
(g20
S'\x89\xa3\xda\xf4\xeas\xe4?'
p395
tp396
Rp397
ag16
(g20
S'S\xef\x9c\xe0\x9fy\xe4?'
p398
tp399
Rp400
ag16
(g20
S'\x99\xf8\xc4\x19\x99\x8d\xe4?'
p401
tp402
Rp403
ag16
(g20
S'\xd817\x93[k\xe4?'
p404
tp405
Rp406
ag16
(g20
S'\r\xe6t\xa7\xa6e\xe4?'
p407
tp408
Rp409
ag16
(g20
S'n\xc9\xbbj\xc5v\xe4?'
p410
tp411
Rp412
ag16
(g20
S'n\xc9\xbbj\xc5v\xe4?'
p413
tp414
Rp415
ag16
(g20
S'\x89\xa3\xda\xf4\xeas\xe4?'
p416
tp417
Rp418
ag16
(g20
S'\x04a@B/\x82\xe4?'
p419
tp420
Rp421
ag16
(g20
S'\xbeW\x18\t6n\xe4?'
p422
tp423
Rp424
ag16
(g20
S'xN\xf0\xcf<Z\xe4?'
p425
tp426
Rp427
ag16
(g20
S'\xe9\x86!\xb8\t\x85\xe4?'
p428
tp429
Rp430
ag16
(g20
S'\r\xe6t\xa7\xa6e\xe4?'
p431
tp432
Rp433
ag16
(g20
S'\x90s\x90\xb4!\xaa\xe4?'
p434
tp435
Rp436
ag16
(g20
S'\xa3}\xf9~\x10q\xe4?'
p437
tp438
Rp439
ag16
(g20
S'\x7f\x1e\xa6\x8fs\x90\xe4?'
p440
tp441
Rp442
ag16
(g20
S'dD\x87\x05N\x93\xe4?'
p443
tp444
Rp445
ag16
(g20
S'\xbb\xa2\x99c\xf5\xc0\xe4?'
p446
tp447
Rp448
ag16
(g20
S'[\xbfR\xa0\xd6\xaf\xe4?'
p449
tp450
Rp451
ag16
(g20
S'@\xe53\x16\xb1\xb2\xe4?'
p452
tp453
Rp454
ag16
(g20
S'dD\x87\x05N\x93\xe4?'
p455
tp456
Rp457
ag16
(g20
S'\xf0V\xd7w@\xbb\xe4?'
p458
tp459
Rp460
ag16
(g20
S"\xc5'\xce\xc8l\xa4\xe4?"
p461
tp462
Rp463
ag16
(g20
S'u\x99q*\xfc\xac\xe4?'
p464
tp465
Rp466
ag16
(g20
S'\x0b1\xf6\x01f\xb8\xe4?'
p467
tp468
Rp469
ag16
(g20
S'%\x0b\x15\x8c\x8b\xb5\xe4?'
p470
tp471
Rp472
ag16
(g20
S'\xf0V\xd7w@\xbb\xe4?'
p473
tp474
Rp475
ag16
(g20
S'[\xbfR\xa0\xd6\xaf\xe4?'
p476
tp477
Rp478
ag16
(g20
S'\xfa\xdb\x0b\xdd\xb7\x9e\xe4?'
p479
tp480
Rp481
ag16
(g20
S'\xaaM\xaf>G\xa7\xe4?'
p482
tp483
Rp484
ag16
(g20
S"\xc5'\xce\xc8l\xa4\xe4?"
p485
tp486
Rp487
ag16
(g20
S'\x7f\x1e\xa6\x8fs\x90\xe4?'
p488
tp489
Rp490
ag16
(g20
S'\x15\xb6*g\xdd\x9b\xe4?'
p491
tp492
Rp493
ag16
(g20
S'\x15\xb6*g\xdd\x9b\xe4?'
p494
tp495
Rp496
ag16
(g20
S'\xcf\xac\x02.\xe4\x87\xe4?'
p497
tp498
Rp499
ag16
(g20
S'\x99\xf8\xc4\x19\x99\x8d\xe4?'
p500
tp501
Rp502
ag16
(g20
S'u\x99q*\xfc\xac\xe4?'
p503
tp504
Rp505
ag16
(g20
S'/\x90I\xf1\x02\x99\xe4?'
p506
tp507
Rp508
ag16
(g20
S'Jjh{(\x96\xe4?'
p509
tp510
Rp511
ag16
(g20
S"\xc5'\xce\xc8l\xa4\xe4?"
p512
tp513
Rp514
ag16
(g20
S'\x0b1\xf6\x01f\xb8\xe4?'
p515
tp516
Rp517
ag16
(g20
S'\xf7&\x8d7w\xf1\xe4?'
p518
tp519
Rp520
ag16
(g20
S'\x86\xee[O\xaa\xc6\xe4?'
p521
tp522
Rp523
ag16
(g20
S'\xa1\xc8z\xd9\xcf\xc3\xe4?'
p524
tp525
Rp526
ag16
(g20
S'\x0b1\xf6\x01f\xb8\xe4?'
p527
tp528
Rp529
ag16
(g20
S'\x86\xee[O\xaa\xc6\xe4?'
p530
tp531
Rp532
ag16
(g20
S'\xbb\xa2\x99c\xf5\xc0\xe4?'
p533
tp534
Rp535
ag16
(g20
S'Q:\x1e;_\xcc\xe4?'
p536
tp537
Rp538
ag16
(g20
S'k\x14=\xc5\x84\xc9\xe4?'
p539
tp540
Rp541
ag16
(g20
S'\x01\xac\xc1\x9c\xee\xd4\xe4?'
p542
tp543
Rp544
ag16
(g20
S'k\x14=\xc5\x84\xc9\xe4?'
p545
tp546
Rp547
ag16
(g20
S'\xb1\x1de\xfe}\xdd\xe4?'
p548
tp549
Rp550
ag16
(g20
S'\xbb\xa2\x99c\xf5\xc0\xe4?'
p551
tp552
Rp553
ag16
(g20
S'\xa8\x980\x99\x06\xfa\xe4?'
p554
tp555
Rp556
ag16
(g20
S'\x86\xee[O\xaa\xc6\xe4?'
p557
tp558
Rp559
ag16
(g20
S'\xb1\x1de\xfe}\xdd\xe4?'
p560
tp561
Rp562
ag16
(g20
S'\x01\xac\xc1\x9c\xee\xd4\xe4?'
p563
tp564
Rp565
ag16
(g20
S'6`\xff\xb09\xcf\xe4?'
p566
tp567
Rp568
ag16
(g20
S'\x90s\x90\xb4!\xaa\xe4?'
p569
tp570
Rp571
ag16
(g20
S'\xe6\xd1\xa2\x12\xc9\xd7\xe4?'
p572
tp573
Rp574
ag16
(g20
S'\xcc\xf7\x83\x88\xa3\xda\xe4?'
p575
tp576
Rp577
ag16
(g20
S'\x12\x01\xac\xc1\x9c\xee\xe4?'
p578
tp579
Rp580
ag16
(g20
S'Q:\x1e;_\xcc\xe4?'
p581
tp582
Rp583
ag16
(g20
S'\xa1\xc8z\xd9\xcf\xc3\xe4?'
p584
tp585
Rp586
ag16
(g20
S'%\x0b\x15\x8c\x8b\xb5\xe4?'
p587
tp588
Rp589
ag16
(g20
S'b\x8f\x08`\r\xe6\xe4?'
p590
tp591
Rp592
ag16
(g20
S"|i'\xea2\xe3\xe4?"
p593
tp594
Rp595
ag16
(g20
S'\xddLn\xadQ\xf4\xe4?'
p596
tp597
Rp598
ag16
(g20
S'\x8d\xbe\x11\x0f\xe1\xfc\xe4?'
p599
tp600
Rp601
ag16
(g20
S'\xf0V\xd7w@\xbb\xe4?'
p602
tp603
Rp604
ag16
(g20
S'G\xb5\xe9\xd5\xe7\xe8\xe4?'
p605
tp606
Rp607
ag16
(g20
S'6`\xff\xb09\xcf\xe4?'
p608
tp609
Rp610
ag16
(g20
S'\xa8\x980\x99\x06\xfa\xe4?'
p611
tp612
Rp613
ag16
(g20
S'\xb1\x1de\xfe}\xdd\xe4?'
p614
tp615
Rp616
ag16
(g20
S'G\xb5\xe9\xd5\xe7\xe8\xe4?'
p617
tp618
Rp619
ag16
(g20
S'\xee\xa1X\xd2\xff\r\xe5?'
p620
tp621
Rp622
ag16
(g20
S'\xa8\x980\x99\x06\xfa\xe4?'
p623
tp624
Rp625
ag16
(g20
S'\xa8\x980\x99\x06\xfa\xe4?'
p626
tp627
Rp628
ag16
(g20
S'r\xe4\xf2\x84\xbb\xff\xe4?'
p629
tp630
Rp631
ag16
(g20
S'\xb1\x1de\xfe}\xdd\xe4?'
p632
tp633
Rp634
ag16
(g20
S'\xee\xa1X\xd2\xff\r\xe5?'
p635
tp636
Rp637
ag16
(g20
S'\xc2rO#,\xf7\xe4?'
p638
tp639
Rp640
ag16
(g20
S'\x9e\x13\xfc3\x8f\x16\xe5?'
p641
tp642
Rp643
ag16
(g20
S"\xfe\xf6B\xf7\xad'\xe5?"
p644
tp645
Rp646
ag16
(g20
S'\xc9B\x05\xe3b-\xe5?'
p647
tp648
Rp649
ag16
(g20
S'\x19\xd1a\x81\xd3$\xe5?'
p650
tp651
Rp652
ag16
(g20
S'_\xda\x89\xba\xcc8\xe5?'
p653
tp654
Rp655
ag16
(g20
S'\x08|w\\%\x0b\xe5?'
p656
tp657
Rp658
ag16
(g20
S'z\xb4\xa8D\xf25\xe5?'
p659
tp660
Rp661
ag16
(g20
S'X\n\xd4\xfa\x95\x02\xe5?'
p662
tp663
Rp664
ag16
(g20
S"\xfe\xf6B\xf7\xad'\xe5?"
p665
tp666
Rp667
ag16
(g20
S'_\xda\x89\xba\xcc8\xe5?'
p668
tp669
Rp670
ag16
(g20
S'X\n\xd4\xfa\x95\x02\xe5?'
p671
tp672
Rp673
ag16
(g20
S'\xafh\xe6X=0\xe5?'
p674
tp675
Rp676
ag16
(g20
S'\xb8\xed\x1a\xbe\xb4\x13\xe5?'
p677
tp678
Rp679
ag16
(g20
S'UUUUUU\xe5?'
p680
tp681
Rp682
ag16
(g20
S'*&L\xa6\x81>\xe5?'
p683
tp684
Rp685
ag16
(g20
S'\xa5\xe3\xb1\xf3\xc5L\xe5?'
p686
tp687
Rp688
ag16
(g20
S'*&L\xa6\x81>\xe5?'
p689
tp690
Rp691
ag16
(g20
S'r\xe4\xf2\x84\xbb\xff\xe4?'
p692
tp693
Rp694
ag16
(g20
S'\x8a\t\x93i\xa0O\xe5?'
p695
tp696
Rp697
ag16
(g20
S'\xc0\xbd\xd0}\xebI\xe5?'
p698
tp699
Rp700
ag16
(g20
S'\xafh\xe6X=0\xe5?'
p701
tp702
Rp703
ag16
(g20
S'\xb8\xed\x1a\xbe\xb4\x13\xe5?'
p704
tp705
Rp706
ag16
(g20
S'\xb8\xed\x1a\xbe\xb4\x13\xe5?'
p707
tp708
Rp709
ag16
(g20
S'UUUUUU\xe5?'
p710
tp711
Rp712
ag16
(g20
S'\x9e\x13\xfc3\x8f\x16\xe5?'
p713
tp714
Rp715
ag16
(g20
S'4\xab\x80\x0b\xf9!\xe5?'
p716
tp717
Rp718
ag16
(g20
S'\x06\xc7\xf8\xb6\xe4]\xe5?'
p719
tp720
Rp721
ag16
(g20
S'N\x85\x9f\x95\x1e\x1f\xe5?'
p722
tp723
Rp724
ag16
(g20
S'\x9e\x13\xfc3\x8f\x16\xe5?'
p725
tp726
Rp727
ag16
(g20
S'\xd3\xc79H\xda\x10\xe5?'
p728
tp729
Rp730
ag16
(g20
S'_\xda\x89\xba\xcc8\xe5?'
p731
tp732
Rp733
ag16
(g20
S'p/t\xdfzR\xe5?'
p734
tp735
Rp736
ag16
(g20
S'\x8a\t\x93i\xa0O\xe5?'
p737
tp738
Rp739
ag16
(g20
S'L\xd0 \xf0\xddq\xe5?'
p740
tp741
Rp742
ag16
(g20
S'\xda\x97\xef\x07\x11G\xe5?'
p743
tp744
Rp745
ag16
(g20
S'\xeb\xec\xd9,\xbf`\xe5?'
p746
tp747
Rp748
ag16
(g20
S'\xa5\xe3\xb1\xf3\xc5L\xe5?'
p749
tp750
Rp751
ag16
(g20
S'f\xaa?z\x03o\xe5?'
p752
tp753
Rp754
ag16
(g20
S'\x06\xc7\xf8\xb6\xe4]\xe5?'
p755
tp756
Rp757
ag16
(g20
S'p/t\xdfzR\xe5?'
p758
tp759
Rp760
ag16
(g20
S'p/t\xdfzR\xe5?'
p761
tp762
Rp763
ag16
(g20
S'\x8a\t\x93i\xa0O\xe5?'
p764
tp765
Rp766
ag16
(g20
S'\x06\xc7\xf8\xb6\xe4]\xe5?'
p767
tp768
Rp769
ag16
(g20
S';{6\xcb/X\xe5?'
p770
tp771
Rp772
ag16
(g20
S'\xf5q\x0e\x926D\xe5?'
p773
tp774
Rp775
ag16
(g20
S'\x0fL-\x1c\\A\xe5?'
p776
tp777
Rp778
ag16
(g20
S' \xa1\x17A\n[\xe5?'
p779
tp780
Rp781
ag16
(g20
S'\x0fL-\x1c\\A\xe5?'
p782
tp783
Rp784
ag16
(g20
S'\xa5\xe3\xb1\xf3\xc5L\xe5?'
p785
tp786
Rp787
ag16
(g20
S'\xa5\xe3\xb1\xf3\xc5L\xe5?'
p788
tp789
Rp790
ag16
(g20
S'\x8a\t\x93i\xa0O\xe5?'
p791
tp792
Rp793
ag16
(g20
S'w\xff)\x9f\xb1\x88\xe5?'
p794
tp795
Rp796
ag16
(g20
S'\x81\x84^\x04)l\xe5?'
p797
tp798
Rp799
ag16
(g20
S'\xc0\xbd\xd0}\xebI\xe5?'
p800
tp801
Rp802
ag16
(g20
S'\xd0\x12\xbb\xa2\x99c\xe5?'
p803
tp804
Rp805
ag16
(g20
S'f\xaa?z\x03o\xe5?'
p806
tp807
Rp808
ag16
(g20
S'\x06\xc7\xf8\xb6\xe4]\xe5?'
p809
tp810
Rp811
ag16
(g20
S'\x839\xdd\xa9i\x19\xe5?'
p812
tp813
Rp814
ag16
(g20
S'\xc9B\x05\xe3b-\xe5?'
p815
tp816
Rp817
ag16
(g20
S'f\xaa?z\x03o\xe5?'
p818
tp819
Rp820
ag16
(g20
S'\xda\x97\xef\x07\x11G\xe5?'
p821
tp822
Rp823
ag16
(g20
S'\x06\xc7\xf8\xb6\xe4]\xe5?'
p824
tp825
Rp826
ag16
(g20
S'\xc9B\x05\xe3b-\xe5?'
p827
tp828
Rp829
ag16
(g20
S'i_\xbe\x1fD\x1c\xe5?'
p830
tp831
Rp832
ag16
(g20
S'\xc7\x8d\x86="\x80\xe5?'
p833
tp834
Rp835
ag16
(g20
S'\x06\xc7\xf8\xb6\xe4]\xe5?'
p836
tp837
Rp838
ag16
(g20
S'\x9b^}\x8eNi\xe5?'
p839
tp840
Rp841
ag16
(g20
S'\x0fL-\x1c\\A\xe5?'
p842
tp843
Rp844
ag16
(g20
S'D\x00k0\xa7;\xe5?'
p845
tp846
Rp847
ag16
(g20
S'\x16\x1c\xe3\xdb\x92w\xe5?'
p848
tp849
Rp850
ag16
(g20
S'\x81\x84^\x04)l\xe5?'
p851
tp852
Rp853
ag16
(g20
S'\x16\x1c\xe3\xdb\x92w\xe5?'
p854
tp855
Rp856
ag16
(g20
S'\x81\x84^\x04)l\xe5?'
p857
tp858
Rp859
ag16
(g20
S'L\xd0 \xf0\xddq\xe5?'
p860
tp861
Rp862
ag16
(g20
S'w\xff)\x9f\xb1\x88\xe5?'
p863
tp864
Rp865
ag16
(g20
S'1\xf6\x01f\xb8t\xe5?'
p866
tp867
Rp868
ag16
(g20
S'\xc7\x8d\x86="\x80\xe5?'
p869
tp870
Rp871
ag16
(g20
S'w\xff)\x9f\xb1\x88\xe5?'
p872
tp873
Rp874
ag16
(g20
S'\xd8\xe2pb\xd0\x99\xe5?'
p875
tp876
Rp877
ag16
(g20
S'S\xa0\xd6\xaf\x14\xa8\xe5?'
p878
tp879
Rp880
ag16
(g20
S'\xac\xb3g\xb3\xfc\x82\xe5?'
p881
tp882
Rp883
ag16
(g20
S'\xfcA\xc4Qmz\xe5?'
p884
tp885
Rp886
ag16
(g20
S'\xac\xb3g\xb3\xfc\x82\xe5?'
p887
tp888
Rp889
ag16
(g20
S'1\xf6\x01f\xb8t\xe5?'
p890
tp891
Rp892
ag16
(g20
S'\xb68\x9c\x18tf\xe5?'
p893
tp894
Rp895
ag16
(g20
S'f\xaa?z\x03o\xe5?'
p896
tp897
Rp898
ag16
(g20
S';{6\xcb/X\xe5?'
p899
tp900
Rp901
ag16
(g20
S'\x92\xd9H)\xd7\x85\xe5?'
p902
tp903
Rp904
ag16
(g20
S'\xd0\x12\xbb\xa2\x99c\xe5?'
p905
tp906
Rp907
ag16
(g20
S'\xfcA\xc4Qmz\xe5?'
p908
tp909
Rp910
ag16
(g20
S'f\xaa?z\x03o\xe5?'
p911
tp912
Rp913
ag16
(g20
S'UUUUUU\xe5?'
p914
tp915
Rp916
ag16
(g20
S'p/t\xdfzR\xe5?'
p917
tp918
Rp919
ag16
(g20
S';{6\xcb/X\xe5?'
p920
tp921
Rp922
ag16
(g20
S'\xf5q\x0e\x926D\xe5?'
p923
tp924
Rp925
ag16
(g20
S'\x0fL-\x1c\\A\xe5?'
p926
tp927
Rp928
ag16
(g20
S' \xa1\x17A\n[\xe5?'
p929
tp930
Rp931
ag16
(g20
S'\xf5q\x0e\x926D\xe5?'
p932
tp933
Rp934
ag16
(g20
S'\x8a\t\x93i\xa0O\xe5?'
p935
tp936
Rp937
ag16
(g20
S'\x0fL-\x1c\\A\xe5?'
p938
tp939
Rp940
ag16
(g20
S'\x8a\t\x93i\xa0O\xe5?'
p941
tp942
Rp943
ag16
(g20
S'\xeb\xec\xd9,\xbf`\xe5?'
p944
tp945
Rp946
ag16
(g20
S'\xeb\xec\xd9,\xbf`\xe5?'
p947
tp948
Rp949
ag16
(g20
S'\xda\x97\xef\x07\x11G\xe5?'
p950
tp951
Rp952
ag16
(g20
S' \xa1\x17A\n[\xe5?'
p953
tp954
Rp955
ag16
(g20
S'\x06\xc7\xf8\xb6\xe4]\xe5?'
p956
tp957
Rp958
ag16
(g20
S'\x92\xd9H)\xd7\x85\xe5?'
p959
tp960
Rp961
ag16
(g20
S'\x81\x84^\x04)l\xe5?'
p962
tp963
Rp964
ag16
(g20
S'1\xf6\x01f\xb8t\xe5?'
p965
tp966
Rp967
ag16
(g20
S'\xe1g\xa5\xc7G}\xe5?'
p968
tp969
Rp970
ag16
(g20
S'\x8a\t\x93i\xa0O\xe5?'
p971
tp972
Rp973
ag16
(g20
S'\xbd\x08R\xd8\xaa\x9c\xe5?'
p974
tp975
Rp976
ag16
(g20
S'w\xff)\x9f\xb1\x88\xe5?'
p977
tp978
Rp979
ag16
(g20
S'\xe1g\xa5\xc7G}\xe5?'
p980
tp981
Rp982
ag16
(g20
S'\x92\xd9H)\xd7\x85\xe5?'
p983
tp984
Rp985
ag16
(g20
S'w\xff)\x9f\xb1\x88\xe5?'
p986
tp987
Rp988
ag16
(g20
S'f\xaa?z\x03o\xe5?'
p989
tp990
Rp991
ag16
(g20
S'f\xaa?z\x03o\xe5?'
p992
tp993
Rp994
ag16
(g20
S'\x92\xd9H)\xd7\x85\xe5?'
p995
tp996
Rp997
ag16
(g20
S'\x16\x1c\xe3\xdb\x92w\xe5?'
p998
tp999
Rp1000
ag16
(g20
S'\x8a\t\x93i\xa0O\xe5?'
p1001
tp1002
Rp1003
ag16
(g20
S'\xa2.3N\x85\x9f\xe5?'
p1004
tp1005
Rp1006
ag16
(g20
S'\\%\x0b\x15\x8c\x8b\xe5?'
p1007
tp1008
Rp1009
ag16
(g20
S'BK\xec\x8af\x8e\xe5?'
p1010
tp1011
Rp1012
ag16
(g20
S'\\%\x0b\x15\x8c\x8b\xe5?'
p1013
tp1014
Rp1015
ag16
(g20
S'BK\xec\x8af\x8e\xe5?'
p1016
tp1017
Rp1018
ag16
(g20
S'\xe87[\x87~\xb3\xe5?'
p1019
tp1020
Rp1021
ag16
(g20
S'\x1e\xec\x98\x9b\xc9\xad\xe5?'
p1022
tp1023
Rp1024
ag16
(g20
S'\r\x97\xaev\x1b\x94\xe5?'
p1025
tp1026
Rp1027
ag16
(g20
S'\x1e\xec\x98\x9b\xc9\xad\xe5?'
p1028
tp1029
Rp1030
ag16
(g20
S'\xbd\x08R\xd8\xaa\x9c\xe5?'
p1031
tp1032
Rp1033
ag16
(g20
S'\xb3\x83\x1ds3\xb9\xe5?'
p1034
tp1035
Rp1036
ag16
(g20
S'\x03\x12z\x11\xa4\xb0\xe5?'
p1037
tp1038
Rp1039
ag16
(g20
S'\xf9\x8cE\xac,\xcd\xe5?'
p1040
tp1041
Rp1042
ag16
(g20
S'\x99\xa9\xfe\xe8\r\xbc\xe5?'
p1043
tp1044
Rp1045
ag16
(g20
S'\xac\xb3g\xb3\xfc\x82\xe5?'
p1046
tp1047
Rp1048
ag16
(g20
S'\x14gd6R\xca\xe5?'
p1049
tp1050
Rp1051
ag16
(g20
S'\x88T\x14\xc4_\xa2\xe5?'
p1052
tp1053
Rp1054
ag16
(g20
S'\xf2\xbc\x8f\xec\xf5\x96\xe5?'
p1055
tp1056
Rp1057
ag16
(g20
S'\xbd\x08R\xd8\xaa\x9c\xe5?'
p1058
tp1059
Rp1060
ag16
(g20
S'\x9b^}\x8eNi\xe5?'
p1061
tp1062
Rp1063
ag16
(g20
S'8\xc6\xb7%\xef\xaa\xe5?'
p1064
tp1065
Rp1066
ag16
(g20
S'~\xcf\xdf^\xe8\xbe\xe5?'
p1067
tp1068
Rp1069
ag16
(g20
S'\xe87[\x87~\xb3\xe5?'
p1070
tp1071
Rp1072
ag16
(g20
S'\x88T\x14\xc4_\xa2\xe5?'
p1073
tp1074
Rp1075
ag16
(g20
S'\x1e\xec\x98\x9b\xc9\xad\xe5?'
p1076
tp1077
Rp1078
ag16
(g20
S'mz\xf59:\xa5\xe5?'
p1079
tp1080
Rp1081
ag16
(g20
S'\xac\xb3g\xb3\xfc\x82\xe5?'
p1082
tp1083
Rp1084
ag16
(g20
S'\xa2.3N\x85\x9f\xe5?'
p1085
tp1086
Rp1087
ag16
(g20
S'\xf2\xbc\x8f\xec\xf5\x96\xe5?'
p1088
tp1089
Rp1090
ag16
(g20
S'w\xff)\x9f\xb1\x88\xe5?'
p1091
tp1092
Rp1093
ag16
(g20
S'\x99\xa9\xfe\xe8\r\xbc\xe5?'
p1094
tp1095
Rp1096
ag16
(g20
S'\x1e\xec\x98\x9b\xc9\xad\xe5?'
p1097
tp1098
Rp1099
ag16
(g20
S'd\xf5\xc0\xd4\xc2\xc1\xe5?'
p1100
tp1101
Rp1102
ag16
(g20
S'~\xcf\xdf^\xe8\xbe\xe5?'
p1103
tp1104
Rp1105
ag16
(g20
S'\xe87[\x87~\xb3\xe5?'
p1106
tp1107
Rp1108
ag16
(g20
S'S\xa0\xd6\xaf\x14\xa8\xe5?'
p1109
tp1110
Rp1111
ag16
(g20
S'BK\xec\x8af\x8e\xe5?'
p1112
tp1113
Rp1114
ag16
(g20
S'\xbd\x08R\xd8\xaa\x9c\xe5?'
p1115
tp1116
Rp1117
ag16
(g20
S'\xe87[\x87~\xb3\xe5?'
p1118
tp1119
Rp1120
ag16
(g20
S'd\xf5\xc0\xd4\xc2\xc1\xe5?'
p1121
tp1122
Rp1123
ag16
(g20
S'tJ\xab\xf9p\xdb\xe5?'
p1124
tp1125
Rp1126
ag16
(g20
S'\x8f$\xca\x83\x96\xd8\xe5?'
p1127
tp1128
Rp1129
ag16
(g20
S'\x03\x12z\x11\xa4\xb0\xe5?'
p1130
tp1131
Rp1132
ag16
(g20
S'Zp\x8coK\xde\xe5?'
p1133
tp1134
Rp1135
ag16
(g20
S'd\xf5\xc0\xd4\xc2\xc1\xe5?'
p1136
tp1137
Rp1138
ag16
(g20
S'\xd5-\xf2\xbc\x8f\xec\xe5?'
p1139
tp1140
Rp1141
ag16
(g20
S'\x99\xa9\xfe\xe8\r\xbc\xe5?'
p1142
tp1143
Rp1144
ag16
(g20
S'%\xbcN[\x00\xe4\xe5?'
p1145
tp1146
Rp1147
ag16
(g20
S'tJ\xab\xf9p\xdb\xe5?'
p1148
tp1149
Rp1150
ag16
(g20
S'\n\xe2/\xd1\xda\xe6\xe5?'
p1151
tp1152
Rp1153
ag16
(g20
S'\xdf\xb2&"\x07\xd0\xe5?'
p1154
tp1155
Rp1156
ag16
(g20
S'\xc4\xd8\x07\x98\xe1\xd2\xe5?'
p1157
tp1158
Rp1159
ag16
(g20
S'\n\xe2/\xd1\xda\xe6\xe5?'
p1160
tp1161
Rp1162
ag16
(g20
S'?\x96m\xe5%\xe1\xe5?'
p1163
tp1164
Rp1165
ag16
(g20
S'tJ\xab\xf9p\xdb\xe5?'
p1166
tp1167
Rp1168
ag16
(g20
S'\n\xe2/\xd1\xda\xe6\xe5?'
p1169
tp1170
Rp1171
ag16
(g20
S'\x8f$\xca\x83\x96\xd8\xe5?'
p1172
tp1173
Rp1174
ag16
(g20
S'\n\xe2/\xd1\xda\xe6\xe5?'
p1175
tp1176
Rp1177
ag16
(g20
S'\xbaS\xd32j\xef\xe5?'
p1178
tp1179
Rp1180
ag16
(g20
S'\x8f$\xca\x83\x96\xd8\xe5?'
p1181
tp1182
Rp1183
ag16
(g20
S'\xbaS\xd32j\xef\xe5?'
p1184
tp1185
Rp1186
ag16
(g20
S'\n\xe2/\xd1\xda\xe6\xe5?'
p1187
tp1188
Rp1189
ag16
(g20
S'\n\xe2/\xd1\xda\xe6\xe5?'
p1190
tp1191
Rp1192
ag16
(g20
S'mz\xf59:\xa5\xe5?'
p1193
tp1194
Rp1195
ag16
(g20
S'Zp\x8coK\xde\xe5?'
p1196
tp1197
Rp1198
ag16
(g20
S'%\xbcN[\x00\xe4\xe5?'
p1199
tp1200
Rp1201
ag16
(g20
S'tJ\xab\xf9p\xdb\xe5?'
p1202
tp1203
Rp1204
ag16
(g20
S'\x14gd6R\xca\xe5?'
p1205
tp1206
Rp1207
ag16
(g20
S'6\x119\x80\xae\xfd\xe5?'
p1208
tp1209
Rp1210
ag16
(g20
S'\x1b7\x1a\xf6\x88\x00\xe6?'
p1211
tp1212
Rp1213
ag16
(g20
S'\xf0\x07\x11G\xb5\xe9\xe5?'
p1214
tp1215
Rp1216
ag16
(g20
S'\xf0\x07\x11G\xb5\xe9\xe5?'
p1217
tp1218
Rp1219
ag16
(g20
S'\n\xe2/\xd1\xda\xe6\xe5?'
p1220
tp1221
Rp1222
ag16
(g20
S'?\x96m\xe5%\xe1\xe5?'
p1223
tp1224
Rp1225
ag16
(g20
S'6\x119\x80\xae\xfd\xe5?'
p1226
tp1227
Rp1228
ag16
(g20
S'Zp\x8coK\xde\xe5?'
p1229
tp1230
Rp1231
ag16
(g20
S'\xaa\xfe\xe8\r\xbc\xd5\xe5?'
p1232
tp1233
Rp1234
ag16
(g20
S'%\xbcN[\x00\xe4\xe5?'
p1235
tp1236
Rp1237
ag16
(g20
S'\x85\x9f\x95\x1e\x1f\xf5\xe5?'
p1238
tp1239
Rp1240
ag16
(g20
S',\x8c\x04\x1b7\x1a\xe6?'
p1241
tp1242
Rp1243
ag16
(g20
S'?\x96m\xe5%\xe1\xe5?'
p1244
tp1245
Rp1246
ag16
(g20
S'\x14gd6R\xca\xe5?'
p1247
tp1248
Rp1249
ag16
(g20
S'\xcb\xa8\xbdW\x18\t\xe6?'
p1250
tp1251
Rp1252
ag16
(g20
S'\xe6\x82\xdc\xe1=\x06\xe6?'
p1253
tp1254
Rp1255
ag16
(g20
S'\x1b7\x1a\xf6\x88\x00\xe6?'
p1256
tp1257
Rp1258
ag16
(g20
S'a@B/\x82\x14\xe6?'
p1259
tp1260
Rp1261
ag16
(g20
S',\x8c\x04\x1b7\x1a\xe6?'
p1262
tp1263
Rp1264
ag16
(g20
S'\x11\xb2\xe5\x90\x11\x1d\xe6?'
p1265
tp1266
Rp1267
ag16
(g20
S'\xb1\xce\x9e\xcd\xf2\x0b\xe6?'
p1268
tp1269
Rp1270
ag16
(g20
S'6\x119\x80\xae\xfd\xe5?'
p1271
tp1272
Rp1273
ag16
(g20
S'Ff#\xa5\\\x17\xe6?'
p1274
tp1275
Rp1276
ag16
(g20
S'P\xebW\n\xd4\xfa\xe5?'
p1277
tp1278
Rp1279
ag16
(g20
S'\x11\xb2\xe5\x90\x11\x1d\xe6?'
p1280
tp1281
Rp1282
ag16
(g20
S'\xdc\xfd\xa7|\xc6"\xe6?'
p1283
tp1284
Rp1285
ag16
(g20
S'\x1b7\x1a\xf6\x88\x00\xe6?'
p1286
tp1287
Rp1288
ag16
(g20
S'\xf7\xd7\xc6\x06\xec\x1f\xe6?'
p1289
tp1290
Rp1291
ag16
(g20
S'\x11\xb2\xe5\x90\x11\x1d\xe6?'
p1292
tp1293
Rp1294
ag16
(g20
S'\xb1\xce\x9e\xcd\xf2\x0b\xe6?'
p1295
tp1296
Rp1297
ag16
(g20
S'Ff#\xa5\\\x17\xe6?'
p1298
tp1299
Rp1300
ag16
(g20
S'a@B/\x82\x14\xe6?'
p1301
tp1302
Rp1303
ag16
(g20
S'|\x1aa\xb9\xa7\x11\xe6?'
p1304
tp1305
Rp1306
ag16
(g20
S',\x8c\x04\x1b7\x1a\xe6?'
p1307
tp1308
Rp1309
ag16
(g20
S'6\x119\x80\xae\xfd\xe5?'
p1310
tp1311
Rp1312
ag16
(g20
S'\x00]\xfbkc\x03\xe6?'
p1313
tp1314
Rp1315
ag16
(g20
S'\xa7Ijh{(\xe6?'
p1316
tp1317
Rp1318
ag16
(g20
S'\x96\xf4\x7fC\xcd\x0e\xe6?'
p1319
tp1320
Rp1321
ag16
(g20
S',\x8c\x04\x1b7\x1a\xe6?'
p1322
tp1323
Rp1324
ag16
(g20
S'\x96\xf4\x7fC\xcd\x0e\xe6?'
p1325
tp1326
Rp1327
ag16
(g20
S'\xe6\x82\xdc\xe1=\x06\xe6?'
p1328
tp1329
Rp1330
ag16
(g20
S'\xa0y\xb4\xa8D\xf2\xe5?'
p1331
tp1332
Rp1333
ag16
(g20
S'\xc2#\x89\xf2\xa0%\xe6?'
p1334
tp1335
Rp1336
ag16
(g20
S'Ff#\xa5\\\x17\xe6?'
p1337
tp1338
Rp1339
ag16
(g20
S'\xdc\xfd\xa7|\xc6"\xe6?'
p1340
tp1341
Rp1342
ag16
(g20
S'\x11\xb2\xe5\x90\x11\x1d\xe6?'
p1343
tp1344
Rp1345
ag16
(g20
S'r\x95,T0.\xe6?'
p1346
tp1347
Rp1348
ag16
(g20
S'\xdc\xfd\xa7|\xc6"\xe6?'
p1349
tp1350
Rp1351
ag16
(g20
S'\xa7Ijh{(\xe6?'
p1352
tp1353
Rp1354
ag16
(g20
S'=\xe1\xee?\xe53\xe6?'
p1355
tp1356
Rp1357
ag16
(g20
S'\x8coK\xdeU+\xe6?'
p1358
tp1359
Rp1360
ag16
(g20
S'W\xbb\r\xca\n1\xe6?'
p1361
tp1362
Rp1363
ag16
(g20
S'Ff#\xa5\\\x17\xe6?'
p1364
tp1365
Rp1366
ag16
(g20
S'\x8coK\xdeU+\xe6?'
p1367
tp1368
Rp1369
ag16
(g20
S'a@B/\x82\x14\xe6?'
p1370
tp1371
Rp1372
ag16
(g20
S'r\x95,T0.\xe6?'
p1373
tp1374
Rp1375
ag16
(g20
S'\xf7\xd7\xc6\x06\xec\x1f\xe6?'
p1376
tp1377
Rp1378
ag16
(g20
S'\x11\xb2\xe5\x90\x11\x1d\xe6?'
p1379
tp1380
Rp1381
ag16
(g20
S'"\x07\xd0\xb5\xbf6\xe6?'
p1382
tp1383
Rp1384
ag16
(g20
S'=\xe1\xee?\xe53\xe6?'
p1385
tp1386
Rp1387
ag16
(g20
S'\x11\xb2\xe5\x90\x11\x1d\xe6?'
p1388
tp1389
Rp1390
ag16
(g20
S'W\xbb\r\xca\n1\xe6?'
p1391
tp1392
Rp1393
ag16
(g20
S'\xdc\xfd\xa7|\xc6"\xe6?'
p1394
tp1395
Rp1396
ag16
(g20
S'\xb1\xce\x9e\xcd\xf2\x0b\xe6?'
p1397
tp1398
Rp1399
ag16
(g20
S'\xf7\xd7\xc6\x06\xec\x1f\xe6?'
p1400
tp1401
Rp1402
ag16
(g20
S',\x8c\x04\x1b7\x1a\xe6?'
p1403
tp1404
Rp1405
ag16
(g20
S'\xf7\xd7\xc6\x06\xec\x1f\xe6?'
p1406
tp1407
Rp1408
ag16
(g20
S',\x8c\x04\x1b7\x1a\xe6?'
p1409
tp1410
Rp1411
ag16
(g20
S'\xedR\x92\xa1t<\xe6?'
p1412
tp1413
Rp1414
ag16
(g20
S'=\xe1\xee?\xe53\xe6?'
p1415
tp1416
Rp1417
ag16
(g20
S'\x00]\xfbkc\x03\xe6?'
p1418
tp1419
Rp1420
ag16
(g20
S'\x11\xb2\xe5\x90\x11\x1d\xe6?'
p1421
tp1422
Rp1423
ag16
(g20
S'\x11\xb2\xe5\x90\x11\x1d\xe6?'
p1424
tp1425
Rp1426
ag16
(g20
S'\xedR\x92\xa1t<\xe6?'
p1427
tp1428
Rp1429
ag16
(g20
S'\x8coK\xdeU+\xe6?'
p1430
tp1431
Rp1432
ag16
(g20
S'\x08-\xb1+\x9a9\xe6?'
p1433
tp1434
Rp1435
ag16
(g20
S'\xa7Ijh{(\xe6?'
p1436
tp1437
Rp1438
ag16
(g20
S'\x9d\xc45\x03\x04E\xe6?'
p1439
tp1440
Rp1441
ag16
(g20
S'\xf7\xd7\xc6\x06\xec\x1f\xe6?'
p1442
tp1443
Rp1444
ag16
(g20
S'=\xe1\xee?\xe53\xe6?'
p1445
tp1446
Rp1447
ag16
(g20
S'=\xe1\xee?\xe53\xe6?'
p1448
tp1449
Rp1450
ag16
(g20
S'=\xe1\xee?\xe53\xe6?'
p1451
tp1452
Rp1453
ag16
(g20
S'"\x07\xd0\xb5\xbf6\xe6?'
p1454
tp1455
Rp1456
ag16
(g20
S'\xe3\xcd]<\xfdX\xe6?'
p1457
tp1458
Rp1459
ag16
(g20
S'r\x95,T0.\xe6?'
p1460
tp1461
Rp1462
ag16
(g20
S'\x83\xea\x16y\xdeG\xe6?'
p1463
tp1464
Rp1465
ag16
(g20
S'\xf7\xd7\xc6\x06\xec\x1f\xe6?'
p1466
tp1467
Rp1468
ag16
(g20
S'\x08-\xb1+\x9a9\xe6?'
p1469
tp1470
Rp1471
ag16
(g20
S'\xc2#\x89\xf2\xa0%\xe6?'
p1472
tp1473
Rp1474
ag16
(g20
S'W\xbb\r\xca\n1\xe6?'
p1475
tp1476
Rp1477
ag16
(g20
S'|\x1aa\xb9\xa7\x11\xe6?'
p1478
tp1479
Rp1480
ag16
(g20
S'\xd2xs\x17O?\xe6?'
p1481
tp1482
Rp1483
ag16
(g20
S'a@B/\x82\x14\xe6?'
p1484
tp1485
Rp1486
ag16
(g20
S'\x8coK\xdeU+\xe6?'
p1487
tp1488
Rp1489
ag16
(g20
S'\xf7\xd7\xc6\x06\xec\x1f\xe6?'
p1490
tp1491
Rp1492
ag16
(g20
S'\xa7Ijh{(\xe6?'
p1493
tp1494
Rp1495
ag16
(g20
S'W\xbb\r\xca\n1\xe6?'
p1496
tp1497
Rp1498
ag16
(g20
S'\x83\xea\x16y\xdeG\xe6?'
p1499
tp1500
Rp1501
ag16
(g20
S'=\xe1\xee?\xe53\xe6?'
p1502
tp1503
Rp1504
ag16
(g20
S'\x9d\xc45\x03\x04E\xe6?'
p1505
tp1506
Rp1507
ag16
(g20
S'\xcb\xa8\xbdW\x18\t\xe6?'
p1508
tp1509
Rp1510
ag16
(g20
S'h\x10\xf8\xee\xb8J\xe6?'
p1511
tp1512
Rp1513
ag16
(g20
S'=\xe1\xee?\xe53\xe6?'
p1514
tp1515
Rp1516
ag16
(g20
S'\xb8\x9eT\x8d)B\xe6?'
p1517
tp1518
Rp1519
ag16
(g20
S'\xedR\x92\xa1t<\xe6?'
p1520
tp1521
Rp1522
ag16
(g20
S'\x08-\xb1+\x9a9\xe6?'
p1523
tp1524
Rp1525
ag16
(g20
S'\xd2xs\x17O?\xe6?'
p1526
tp1527
Rp1528
ag16
(g20
S'\xedR\x92\xa1t<\xe6?'
p1529
tp1530
Rp1531
ag16
(g20
S'r\x95,T0.\xe6?'
p1532
tp1533
Rp1534
ag16
(g20
S'\x9d\xc45\x03\x04E\xe6?'
p1535
tp1536
Rp1537
ag16
(g20
S'\xa7Ijh{(\xe6?'
p1538
tp1539
Rp1540
ag16
(g20
S'h\x10\xf8\xee\xb8J\xe6?'
p1541
tp1542
Rp1543
ag16
(g20
S'\x94?\x01\x9e\x8ca\xe6?'
p1544
tp1545
Rp1546
ag16
(g20
S'\xe3\xcd]<\xfdX\xe6?'
p1547
tp1548
Rp1549
ag16
(g20
S'"\x07\xd0\xb5\xbf6\xe6?'
p1550
tp1551
Rp1552
ag16
(g20
S'ye\xe2\x13gd\xe6?'
p1553
tp1554
Rp1555
ag16
(g20
S'\xae\x19 (\xb2^\xe6?'
p1556
tp1557
Rp1558
ag16
(g20
S'\xd2xs\x17O?\xe6?'
p1559
tp1560
Rp1561
ag16
(g20
S')\xd7\x85u\xf6l\xe6?'
p1562
tp1563
Rp1564
ag16
(g20
S'^\x8b\xc3\x89Ag\xe6?'
p1565
tp1566
Rp1567
ag16
(g20
S'\x18\x82\x9bPHS\xe6?'
p1568
tp1569
Rp1570
ag16
(g20
S'3\\\xba\xdamP\xe6?'
p1571
tp1572
Rp1573
ag16
(g20
S'D\xb1\xa4\xff\x1bj\xe6?'
p1574
tp1575
Rp1576
ag16
(g20
S'\x9d\xc45\x03\x04E\xe6?'
p1577
tp1578
Rp1579
ag16
(g20
S'\xd2xs\x17O?\xe6?'
p1580
tp1581
Rp1582
ag16
(g20
S'D\xb1\xa4\xff\x1bj\xe6?'
p1583
tp1584
Rp1585
ag16
(g20
S'\xc9\xf3>\xb2\xd7[\xe6?'
p1586
tp1587
Rp1588
ag16
(g20
S'\x08-\xb1+\x9a9\xe6?'
p1589
tp1590
Rp1591
ag16
(g20
S'=\xe1\xee?\xe53\xe6?'
p1592
tp1593
Rp1594
ag16
(g20
S'\x8coK\xdeU+\xe6?'
p1595
tp1596
Rp1597
ag16
(g20
S'\xb8\x9eT\x8d)B\xe6?'
p1598
tp1599
Rp1600
ag16
(g20
S'^\x8b\xc3\x89Ag\xe6?'
p1601
tp1602
Rp1603
ag16
(g20
S'\x94?\x01\x9e\x8ca\xe6?'
p1604
tp1605
Rp1606
ag16
(g20
S'r\x95,T0.\xe6?'
p1607
tp1608
Rp1609
ag16
(g20
S'\xc9\xf3>\xb2\xd7[\xe6?'
p1610
tp1611
Rp1612
ag16
(g20
S'\xb8\x9eT\x8d)B\xe6?'
p1613
tp1614
Rp1615
ag16
(g20
S'\x8coK\xdeU+\xe6?'
p1616
tp1617
Rp1618
ag16
(g20
S'N6\xd9d\x93M\xe6?'
p1619
tp1620
Rp1621
ag16
(g20
S'\xae\x19 (\xb2^\xe6?'
p1622
tp1623
Rp1624
ag16
(g20
S'\xe3\xcd]<\xfdX\xe6?'
p1625
tp1626
Rp1627
ag16
(g20
S'3\\\xba\xdamP\xe6?'
p1628
tp1629
Rp1630
ag16
(g20
S'\x11\xb2\xe5\x90\x11\x1d\xe6?'
p1631
tp1632
Rp1633
ag16
(g20
S'=\xe1\xee?\xe53\xe6?'
p1634
tp1635
Rp1636
ag16
(g20
S'\xdc\xfd\xa7|\xc6"\xe6?'
p1637
tp1638
Rp1639
ag16
(g20
S'\xdc\xfd\xa7|\xc6"\xe6?'
p1640
tp1641
Rp1642
ag16
(g20
S'=\xe1\xee?\xe53\xe6?'
p1643
tp1644
Rp1645
ag16
(g20
S'\xedR\x92\xa1t<\xe6?'
p1646
tp1647
Rp1648
ag16
(g20
S'\xc9\xf3>\xb2\xd7[\xe6?'
p1649
tp1650
Rp1651
ag16
(g20
S'N6\xd9d\x93M\xe6?'
p1652
tp1653
Rp1654
ag16
(g20
S'\x83\xea\x16y\xdeG\xe6?'
p1655
tp1656
Rp1657
ag16
(g20
S'\x18\x82\x9bPHS\xe6?'
p1658
tp1659
Rp1660
ag16
(g20
S'\xb8\x9eT\x8d)B\xe6?'
p1661
tp1662
Rp1663
ag16
(g20
S'\x08-\xb1+\x9a9\xe6?'
p1664
tp1665
Rp1666
ag16
(g20
S'D\xb1\xa4\xff\x1bj\xe6?'
p1667
tp1668
Rp1669
ag16
(g20
S'h\x10\xf8\xee\xb8J\xe6?'
p1670
tp1671
Rp1672
ag16
(g20
S'\xb8\x9eT\x8d)B\xe6?'
p1673
tp1674
Rp1675
ag16
(g20
S'o\xe0\xad\xae\xef\x80\xe6?'
p1676
tp1677
Rp1678
ag16
(g20
S'\x08-\xb1+\x9a9\xe6?'
p1679
tp1680
Rp1681
ag16
(g20
S'\x83\xea\x16y\xdeG\xe6?'
p1682
tp1683
Rp1684
ag16
(g20
S'3\\\xba\xdamP\xe6?'
p1685
tp1686
Rp1687
ag16
(g20
S'\x83\xea\x16y\xdeG\xe6?'
p1688
tp1689
Rp1690
ag16
(g20
S'ye\xe2\x13gd\xe6?'
p1691
tp1692
Rp1693
ag16
(g20
S'\x08-\xb1+\x9a9\xe6?'
p1694
tp1695
Rp1696
ag16
(g20
S'\x08-\xb1+\x9a9\xe6?'
p1697
tp1698
Rp1699
ag16
(g20
S'\xd2xs\x17O?\xe6?'
p1700
tp1701
Rp1702
ag16
(g20
S'\x83\xea\x16y\xdeG\xe6?'
p1703
tp1704
Rp1705
ag16
(g20
S'\x83\xea\x16y\xdeG\xe6?'
p1706
tp1707
Rp1708
ag16
(g20
S'\x83\xea\x16y\xdeG\xe6?'
p1709
tp1710
Rp1711
ag16
(g20
S'3\\\xba\xdamP\xe6?'
p1712
tp1713
Rp1714
ag16
(g20
S'\xae\x19 (\xb2^\xe6?'
p1715
tp1716
Rp1717
ag16
(g20
S'\x8coK\xdeU+\xe6?'
p1718
tp1719
Rp1720
ag16
(g20
S'3\\\xba\xdamP\xe6?'
p1721
tp1722
Rp1723
ag16
(g20
S'\xc2#\x89\xf2\xa0%\xe6?'
p1724
tp1725
Rp1726
ag16
(g20
S'h\x10\xf8\xee\xb8J\xe6?'
p1727
tp1728
Rp1729
ag16
(g20
S'\x9d\xc45\x03\x04E\xe6?'
p1730
tp1731
Rp1732
ag16
(g20
S'\xfe\xa7|\xc6"V\xe6?'
p1733
tp1734
Rp1735
ag16
(g20
S'\x9d\xc45\x03\x04E\xe6?'
p1736
tp1737
Rp1738
ag16
(g20
S'3\\\xba\xdamP\xe6?'
p1739
tp1740
Rp1741
ag16
(g20
S'\xc9\xf3>\xb2\xd7[\xe6?'
p1742
tp1743
Rp1744
ag16
(g20
S'3\\\xba\xdamP\xe6?'
p1745
tp1746
Rp1747
ag16
(g20
S'\x9d\xc45\x03\x04E\xe6?'
p1748
tp1749
Rp1750
ag16
(g20
S'"\x07\xd0\xb5\xbf6\xe6?'
p1751
tp1752
Rp1753
ag16
(g20
S'\x08-\xb1+\x9a9\xe6?'
p1754
tp1755
Rp1756
ag16
(g20
S'\x83\xea\x16y\xdeG\xe6?'
p1757
tp1758
Rp1759
ag16
(g20
S'N6\xd9d\x93M\xe6?'
p1760
tp1761
Rp1762
ag16
(g20
S'\xd2xs\x17O?\xe6?'
p1763
tp1764
Rp1765
ag16
(g20
S'\x83\xea\x16y\xdeG\xe6?'
p1766
tp1767
Rp1768
ag16
(g20
S'=\xe1\xee?\xe53\xe6?'
p1769
tp1770
Rp1771
ag16
(g20
S'"\x07\xd0\xb5\xbf6\xe6?'
p1772
tp1773
Rp1774
ag16
(g20
S'\x83\xea\x16y\xdeG\xe6?'
p1775
tp1776
Rp1777
ag16
(g20
S'\x8coK\xdeU+\xe6?'
p1778
tp1779
Rp1780
ag16
(g20
S'\x18\x82\x9bPHS\xe6?'
p1781
tp1782
Rp1783
ag16
(g20
S'\x18\x82\x9bPHS\xe6?'
p1784
tp1785
Rp1786
ag16
(g20
S'3\\\xba\xdamP\xe6?'
p1787
tp1788
Rp1789
ag16
(g20
S'N6\xd9d\x93M\xe6?'
p1790
tp1791
Rp1792
ag16
(g20
S'\xae\x19 (\xb2^\xe6?'
p1793
tp1794
Rp1795
ag16
(g20
S'\xd2xs\x17O?\xe6?'
p1796
tp1797
Rp1798
ag16
(g20
S'"\x07\xd0\xb5\xbf6\xe6?'
p1799
tp1800
Rp1801
ag16
(g20
S'3\\\xba\xdamP\xe6?'
p1802
tp1803
Rp1804
ag16
(g20
S'\x9d\xc45\x03\x04E\xe6?'
p1805
tp1806
Rp1807
ag16
(g20
S'D\xb1\xa4\xff\x1bj\xe6?'
p1808
tp1809
Rp1810
ag16
(g20
S'\x83\xea\x16y\xdeG\xe6?'
p1811
tp1812
Rp1813
ag16
(g20
S'\x18\x82\x9bPHS\xe6?'
p1814
tp1815
Rp1816
ag16
(g20
S'h\x10\xf8\xee\xb8J\xe6?'
p1817
tp1818
Rp1819
ag16
(g20
S'N6\xd9d\x93M\xe6?'
p1820
tp1821
Rp1822
ag16
(g20
S'\x94?\x01\x9e\x8ca\xe6?'
p1823
tp1824
Rp1825
ag16
(g20
S'r\x95,T0.\xe6?'
p1826
tp1827
Rp1828
ag16
(g20
S'3\\\xba\xdamP\xe6?'
p1829
tp1830
Rp1831
ag16
(g20
S'3\\\xba\xdamP\xe6?'
p1832
tp1833
Rp1834
ag16
(g20
S'"\x07\xd0\xb5\xbf6\xe6?'
p1835
tp1836
Rp1837
ag16
(g20
S'\x83\xea\x16y\xdeG\xe6?'
p1838
tp1839
Rp1840
ag16
(g20
S'\x18\x82\x9bPHS\xe6?'
p1841
tp1842
Rp1843
ag16
(g20
S'\xfe\xa7|\xc6"V\xe6?'
p1844
tp1845
Rp1846
ag16
(g20
S'N6\xd9d\x93M\xe6?'
p1847
tp1848
Rp1849
ag16
(g20
S'\x9d\xc45\x03\x04E\xe6?'
p1850
tp1851
Rp1852
ag16
(g20
S'\x9d\xc45\x03\x04E\xe6?'
p1853
tp1854
Rp1855
ag16
(g20
S'\xb8\x9eT\x8d)B\xe6?'
p1856
tp1857
Rp1858
ag16
(g20
S'\xa4\x94\xeb\xc2:{\xe6?'
p1859
tp1860
Rp1861
ag16
(g20
S'\x94?\x01\x9e\x8ca\xe6?'
p1862
tp1863
Rp1864
ag16
(g20
S')\xd7\x85u\xf6l\xe6?'
p1865
tp1866
Rp1867
ag16
(g20
S'\x18\x82\x9bPHS\xe6?'
p1868
tp1869
Rp1870
ag16
(g20
S'\x94?\x01\x9e\x8ca\xe6?'
p1871
tp1872
Rp1873
ag16
(g20
S'\x0f\xfdf\xeb\xd0o\xe6?'
p1874
tp1875
Rp1876
ag16
(g20
S'\x94?\x01\x9e\x8ca\xe6?'
p1877
tp1878
Rp1879
ag16
(g20
S'\x18\x82\x9bPHS\xe6?'
p1880
tp1881
Rp1882
ag16
(g20
S'\x0f\xfdf\xeb\xd0o\xe6?'
p1883
tp1884
Rp1885
ag16
(g20
S'\xc9\xf3>\xb2\xd7[\xe6?'
p1886
tp1887
Rp1888
ag16
(g20
S'\xc9\xf3>\xb2\xd7[\xe6?'
p1889
tp1890
Rp1891
ag16
(g20
S'\xbfn\nM`x\xe6?'
p1892
tp1893
Rp1894
ag16
(g20
S'\xe3\xcd]<\xfdX\xe6?'
p1895
tp1896
Rp1897
ag16
(g20
S'\xfe\xa7|\xc6"V\xe6?'
p1898
tp1899
Rp1900
ag16
(g20
S'U\x06\x8f$\xca\x83\xe6?'
p1901
tp1902
Rp1903
ag16
(g20
S'\x0f\xfdf\xeb\xd0o\xe6?'
p1904
tp1905
Rp1906
ag16
(g20
S'N6\xd9d\x93M\xe6?'
p1907
tp1908
Rp1909
ag16
(g20
S'\xd2xs\x17O?\xe6?'
p1910
tp1911
Rp1912
ag16
(g20
S'\x94?\x01\x9e\x8ca\xe6?'
p1913
tp1914
Rp1915
ag16
(g20
S'\x18\x82\x9bPHS\xe6?'
p1916
tp1917
Rp1918
ag16
(g20
S'\xf4"Ha\xabr\xe6?'
p1919
tp1920
Rp1921
ag16
(g20
S'\xe3\xcd]<\xfdX\xe6?'
p1922
tp1923
Rp1924
ag16
(g20
S'\x08-\xb1+\x9a9\xe6?'
p1925
tp1926
Rp1927
ag16
(g20
S'3\\\xba\xdamP\xe6?'
p1928
tp1929
Rp1930
ag16
(g20
S'\xa4\x94\xeb\xc2:{\xe6?'
p1931
tp1932
Rp1933
ag16
(g20
S'\xae\x19 (\xb2^\xe6?'
p1934
tp1935
Rp1936
ag16
(g20
S'3\\\xba\xdamP\xe6?'
p1937
tp1938
Rp1939
ag16
(g20
S'^\x8b\xc3\x89Ag\xe6?'
p1940
tp1941
Rp1942
ag16
(g20
S'ye\xe2\x13gd\xe6?'
p1943
tp1944
Rp1945
ag16
(g20
S'\xc9\xf3>\xb2\xd7[\xe6?'
p1946
tp1947
Rp1948
ag16
(g20
S')\xd7\x85u\xf6l\xe6?'
p1949
tp1950
Rp1951
ag16
(g20
S'ye\xe2\x13gd\xe6?'
p1952
tp1953
Rp1954
ag16
(g20
S'\xdaH)\xd7\x85u\xe6?'
p1955
tp1956
Rp1957
ag16
(g20
S'\x0f\xfdf\xeb\xd0o\xe6?'
p1958
tp1959
Rp1960
ag16
(g20
S'^\x8b\xc3\x89Ag\xe6?'
p1961
tp1962
Rp1963
ag16
(g20
S'\xf4"Ha\xabr\xe6?'
p1964
tp1965
Rp1966
ag16
(g20
S')\xd7\x85u\xf6l\xe6?'
p1967
tp1968
Rp1969
ag16
(g20
S'D\xb1\xa4\xff\x1bj\xe6?'
p1970
tp1971
Rp1972
ag16
(g20
S')\xd7\x85u\xf6l\xe6?'
p1973
tp1974
Rp1975
ag16
(g20
S')\xd7\x85u\xf6l\xe6?'
p1976
tp1977
Rp1978
ag16
(g20
S'\x0f\xfdf\xeb\xd0o\xe6?'
p1979
tp1980
Rp1981
ag16
(g20
S'\xb8\x9eT\x8d)B\xe6?'
p1982
tp1983
Rp1984
ag16
(g20
S'\xfe\xa7|\xc6"V\xe6?'
p1985
tp1986
Rp1987
ag16
(g20
S'\xc9\xf3>\xb2\xd7[\xe6?'
p1988
tp1989
Rp1990
ag16
(g20
S'\xae\x19 (\xb2^\xe6?'
p1991
tp1992
Rp1993
ag16
(g20
S'\x18\x82\x9bPHS\xe6?'
p1994
tp1995
Rp1996
ag16
(g20
S'D\xb1\xa4\xff\x1bj\xe6?'
p1997
tp1998
Rp1999
ag16
(g20
S'ye\xe2\x13gd\xe6?'
p2000
tp2001
Rp2002
ag16
(g20
S'\x0f\xfdf\xeb\xd0o\xe6?'
p2003
tp2004
Rp2005
ag16
(g20
S'ye\xe2\x13gd\xe6?'
p2006
tp2007
Rp2008
ag16
(g20
S'\xfe\xa7|\xc6"V\xe6?'
p2009
tp2010
Rp2011
ag16
(g20
S'3\\\xba\xdamP\xe6?'
p2012
tp2013
Rp2014
ag16
(g20
S'\xdaH)\xd7\x85u\xe6?'
p2015
tp2016
Rp2017
ag16
(g20
S'\x94?\x01\x9e\x8ca\xe6?'
p2018
tp2019
Rp2020
ag16
(g20
S'U\x06\x8f$\xca\x83\xe6?'
p2021
tp2022
Rp2023
ag16
(g20
S'\xf4"Ha\xabr\xe6?'
p2024
tp2025
Rp2026
ag16
(g20
S'D\xb1\xa4\xff\x1bj\xe6?'
p2027
tp2028
Rp2029
ag16
(g20
S'U\x06\x8f$\xca\x83\xe6?'
p2030
tp2031
Rp2032
ag16
(g20
S'\x8a\xba\xcc8\x15~\xe6?'
p2033
tp2034
Rp2035
ag16
(g20
S'3\\\xba\xdamP\xe6?'
p2036
tp2037
Rp2038
ag16
(g20
S'^\x8b\xc3\x89Ag\xe6?'
p2039
tp2040
Rp2041
ag16
(g20
S'\xbfn\nM`x\xe6?'
p2042
tp2043
Rp2044
ag16
(g20
S'\x0f\xfdf\xeb\xd0o\xe6?'
p2045
tp2046
Rp2047
ag16
(g20
S'o\xe0\xad\xae\xef\x80\xe6?'
p2048
tp2049
Rp2050
ag16
(g20
S'\xea\x9d\x13\xfc3\x8f\xe6?'
p2051
tp2052
Rp2053
ag16
(g20
S'o\xe0\xad\xae\xef\x80\xe6?'
p2054
tp2055
Rp2056
ag16
(g20
S':,p\x9a\xa4\x86\xe6?'
p2057
tp2058
Rp2059
ag16
(g20
S'\xdaH)\xd7\x85u\xe6?'
p2060
tp2061
Rp2062
ag16
(g20
S' RQ\x10\x7f\x89\xe6?'
p2063
tp2064
Rp2065
ag16
(g20
S'=\xe1\xee?\xe53\xe6?'
p2066
tp2067
Rp2068
ag16
(g20
S'\xfe\xa7|\xc6"V\xe6?'
p2069
tp2070
Rp2071
ag16
(g20
S'U\x06\x8f$\xca\x83\xe6?'
p2072
tp2073
Rp2074
ag16
(g20
S'\x9b\x0f\xb7]\xc3\x97\xe6?'
p2075
tp2076
Rp2077
ag16
(g20
S'\x9d\xc45\x03\x04E\xe6?'
p2078
tp2079
Rp2080
ag16
(g20
S'D\xb1\xa4\xff\x1bj\xe6?'
p2081
tp2082
Rp2083
ag16
(g20
S')\xd7\x85u\xf6l\xe6?'
p2084
tp2085
Rp2086
ag16
(g20
S'\xae\x19 (\xb2^\xe6?'
p2087
tp2088
Rp2089
ag16
(g20
S'\x18\x82\x9bPHS\xe6?'
p2090
tp2091
Rp2092
ag16
(g20
S'\xdaH)\xd7\x85u\xe6?'
p2093
tp2094
Rp2095
ag16
(g20
S'\xa4\x94\xeb\xc2:{\xe6?'
p2096
tp2097
Rp2098
ag16
(g20
S':,p\x9a\xa4\x86\xe6?'
p2099
tp2100
Rp2101
ag16
(g20
S'\xdaH)\xd7\x85u\xe6?'
p2102
tp2103
Rp2104
ag16
(g20
S'o\xe0\xad\xae\xef\x80\xe6?'
p2105
tp2106
Rp2107
ag16
(g20
S'\xbfn\nM`x\xe6?'
p2108
tp2109
Rp2110
ag16
(g20
S'\xc9\xf3>\xb2\xd7[\xe6?'
p2111
tp2112
Rp2113
ag16
(g20
S'U\x06\x8f$\xca\x83\xe6?'
p2114
tp2115
Rp2116
ag16
(g20
S'U\x06\x8f$\xca\x83\xe6?'
p2117
tp2118
Rp2119
ag16
(g20
S'\xae\x19 (\xb2^\xe6?'
p2120
tp2121
Rp2122
ag16
(g20
S'\xbfn\nM`x\xe6?'
p2123
tp2124
Rp2125
ag16
(g20
S'\xdaH)\xd7\x85u\xe6?'
p2126
tp2127
Rp2128
ag16
(g20
S'\x18\x82\x9bPHS\xe6?'
p2129
tp2130
Rp2131
ag16
(g20
S'U\x06\x8f$\xca\x83\xe6?'
p2132
tp2133
Rp2134
ag16
(g20
S'\xa4\x94\xeb\xc2:{\xe6?'
p2135
tp2136
Rp2137
ag16
(g20
S'D\xb1\xa4\xff\x1bj\xe6?'
p2138
tp2139
Rp2140
ag16
(g20
S'\xc9\xf3>\xb2\xd7[\xe6?'
p2141
tp2142
Rp2143
ag16
(g20
S'\x16\xcd\x1c\xab\x07\xa6\xe6?'
p2144
tp2145
Rp2146
ag16
(g20
S'\xf4"Ha\xabr\xe6?'
p2147
tp2148
Rp2149
ag16
(g20
S')\xd7\x85u\xf6l\xe6?'
p2150
tp2151
Rp2152
ag16
(g20
S'\x805\x98\xd3\x9d\x9a\xe6?'
p2153
tp2154
Rp2155
ag16
(g20
S'U\x06\x8f$\xca\x83\xe6?'
p2156
tp2157
Rp2158
ag16
(g20
S'\x0f\xfdf\xeb\xd0o\xe6?'
p2159
tp2160
Rp2161
aasS'SGD_Uncertainty'
p2162
(lp2163
(lp2164
g16
(g20
S'Q\xc1\xb8XKe\xe0?'
p2165
tp2166
Rp2167
ag16
(g20
S'\x94\x15b\xec\x03\xcc\xe0?'
p2168
tp2169
Rp2170
ag16
(g20
S'\xb8t\xb5\xdb\xa0\xac\xe0?'
p2171
tp2172
Rp2173
ag16
(g20
S'\xfc\xc8^oY\x13\xe1?'
p2174
tp2175
Rp2176
ag16
(g20
S'\x990\x99\x06\xfaT\xe1?'
p2177
tp2178
Rp2179
ag16
(g20
S'%C\xe9x\xec|\xe1?'
p2180
tp2181
Rp2182
ag16
(g20
S"'\xf8g\x1e-*\xe1?"
p2183
tp2184
Rp2185
ag16
(g20
S'\x14\xee\xfeS>c\xe1?'
p2186
tp2187
Rp2188
ag16
(g20
S'a\xc7\xdcLn\xad\xe1?'
p2189
tp2190
Rp2191
ag16
(g20
S'\xdc\x84B\x9a\xb2\xbb\xe1?'
p2192
tp2193
Rp2194
ag16
(g20
S'F\xed\xbd\xc2H\xb0\xe1?'
p2195
tp2196
Rp2197
ag16
(g20
S'\xd9\xcf\xc3\xf4q\x0e\xe2?'
p2198
tp2199
Rp2200
ag16
(g20
S'\xb5pp\x05\xd5-\xe2?'
p2201
tp2202
Rp2203
ag16
(g20
S'ogH\xcc\xdb\x19\xe2?'
p2204
tp2205
Rp2206
ag16
(g20
S'\xe1\x9fy\xb4\xa8D\xe2?'
p2207
tp2208
Rp2209
ag16
(g20
S'7\xfe\x8b\x12Pr\xe2?'
p2210
tp2211
Rp2212
ag16
(g20
S'v7\xfe\x8b\x12P\xe2?'
p2213
tp2214
Rp2215
ag16
(g20
S'\x87\x8c\xe8\xb0\xc0i\xe2?'
p2216
tp2217
Rp2218
ag16
(g20
S'\x87\x8c\xe8\xb0\xc0i\xe2?'
p2219
tp2220
Rp2221
ag16
(g20
S'HSv7\xfe\x8b\xe2?'
p2222
tp2223
Rp2224
ag16
(g20
S'm\xb2\xc9&\x9bl\xe2?'
p2225
tp2226
Rp2227
ag16
(g20
S'\xc3\x10\xdc\x84B\x9a\xe2?'
p2228
tp2229
Rp2230
ag16
(g20
S'\xe5\xba\xb0\xce\x9e\xcd\xe2?'
p2231
tp2232
Rp2233
ag16
(g20
S'\xcb\xe0\x91Dy\xd0\xe2?'
p2234
tp2235
Rp2236
ag16
(g20
S'\x82"\xebe?\x0f\xe3?'
p2237
tp2238
Rp2239
ag16
(g20
S'\x11\xea\xb9}r\xe4\xe2?'
p2240
tp2241
Rp2242
ag16
(g20
S"\xdb5|i'\xea\xe2?"
p2243
tp2244
Rp2245
ag16
(g20
S'W\xf3\xe1\xb6k\xf8\xe2?'
p2246
tp2247
Rp2248
ag16
(g20
S'gH\xcc\xdb\x19\x12\xe3?'
p2249
tp2250
Rp2251
ag16
(g20
S'\xf3Z\x1cN\x0c:\xe3?'
p2252
tp2253
Rp2254
ag16
(g20
S'\xa4\xcc\xbf\xaf\x9bB\xe3?'
p2255
tp2256
Rp2257
ag16
(g20
S'\xea\xd5\xe7\xe8\x94V\xe3?'
p2258
tp2259
Rp2260
ag16
(g20
S'\xea\xd5\xe7\xe8\x94V\xe3?'
p2261
tp2262
Rp2263
ag16
(g20
S'0\xdf\x0f"\x8ej\xe3?'
p2264
tp2265
Rp2266
ag16
(g20
S'\x9aG\x8bJ$_\xe3?'
p2267
tp2268
Rp2269
ag16
(g20
S'\xf1\xa5\x9d\xa8\xcb\x8c\xe3?'
p2270
tp2271
Rp2272
ag16
(g20
S'Q\x89\xe4k\xea\x9d\xe3?'
p2273
tp2274
Rp2275
ag16
(g20
S'\xa8\xe7\xf6\xc9\x91\xcb\xe3?'
p2276
tp2277
Rp2278
ag16
(g20
S'\x97\x92\x0c\xa5\xe3\xb1\xe3?'
p2279
tp2280
Rp2281
ag16
(g20
S'\xf8uSh\x02\xc3\xe3?'
p2282
tp2283
Rp2284
ag16
(g20
S'\x02\xfb\x87\xcdy\xa6\xe3?'
p2285
tp2286
Rp2287
ag16
(g20
S'-*\x91|M\xbd\xe3?'
p2288
tp2289
Rp2290
ag16
(g20
S'b\xde\xce\x90\x98\xb7\xe3?'
p2291
tp2292
Rp2293
ag16
(g20
S'>\x7f{\xa1\xfb\xd6\xe3?'
p2294
tp2295
Rp2296
ag16
(g20
S'\x97\x92\x0c\xa5\xe3\xb1\xe3?'
p2297
tp2298
Rp2299
ag16
(g20
S'b\xde\xce\x90\x98\xb7\xe3?'
p2300
tp2301
Rp2302
ag16
(g20
S'\xcdFJ\xb9.\xac\xe3?'
p2303
tp2304
Rp2305
ag16
(g20
S'\x87="\x805\x98\xe3?'
p2306
tp2307
Rp2308
ag16
(g20
S'\xcdFJ\xb9.\xac\xe3?'
p2309
tp2310
Rp2311
ag16
(g20
S'\x97\x92\x0c\xa5\xe3\xb1\xe3?'
p2312
tp2313
Rp2314
ag16
(g20
S'\xb2l+/\t\xaf\xe3?'
p2315
tp2316
Rp2317
ag16
(g20
S'\x8e\r\xd8?l\xce\xe3?'
p2318
tp2319
Rp2320
ag16
(g20
S'YY\x9a+!\xd4\xe3?'
p2321
tp2322
Rp2323
ag16
(g20
S'4\xfaF<\x84\xf3\xe3?'
p2324
tp2325
Rp2326
ag16
(g20
S'\xa8\xe7\xf6\xc9\x91\xcb\xe3?'
p2327
tp2328
Rp2329
ag16
(g20
S'\xc3\xc1\x15T\xb7\xc8\xe3?'
p2330
tp2331
Rp2332
ag16
(g20
S'\t\xcb=\x8d\xb0\xdc\xe3?'
p2333
tp2334
Rp2335
ag16
(g20
S'+u\x12\xd7\x0c\x10\xe4?'
p2336
tp2337
Rp2338
ag16
(g20
S'EO1a2\r\xe4?'
p2339
tp2340
Rp2341
ag16
(g20
S'EO1a2\r\xe4?'
p2342
tp2343
Rp2344
ag16
(g20
S'\x81\xd3$5\xb4=\xe4?'
p2345
tp2346
Rp2347
ag16
(g20
S'\x06\x16\xbf\xe7o/\xe4?'
p2348
tp2349
Rp2350
ag16
(g20
S'\x9c\xadC\xbf\xd9:\xe4?'
p2351
tp2352
Rp2353
ag16
(g20
S'V\xa4\x1b\x86\xe0&\xe4?'
p2354
tp2355
Rp2356
ag16
(g20
S'\x17k\xa9\x0c\x1eI\xe4?'
p2357
tp2358
Rp2359
ag16
(g20
S'\x92(\x0fZbW\xe4?'
p2360
tp2361
Rp2362
ag16
(g20
S'9\x15~Vz|\xe4?'
p2363
tp2364
Rp2365
ag16
(g20
S'\xe2\xb6k\xf8\xd2N\xe4?'
p2366
tp2367
Rp2368
ag16
(g20
S'2E\xc8\x96CF\xe4?'
p2369
tp2370
Rp2371
ag16
(g20
S'\x1e;_\xccT\x7f\xe4?'
p2372
tp2373
Rp2374
ag16
(g20
S'\xc7\xdcLn\xadQ\xe4?'
p2375
tp2376
Rp2377
ag16
(g20
S'xN\xf0\xcf<Z\xe4?'
p2378
tp2379
Rp2380
ag16
(g20
S'\xc7\xdcLn\xadQ\xe4?'
p2381
tp2382
Rp2383
ag16
(g20
S'(\xc0\x931\xccb\xe4?'
p2384
tp2385
Rp2386
ag16
(g20
S'g\xf9\x05\xab\x8e@\xe4?'
p2387
tp2388
Rp2389
ag16
(g20
S'xN\xf0\xcf<Z\xe4?'
p2390
tp2391
Rp2392
ag16
(g20
S'L\x1f\xe7 iC\xe4?'
p2393
tp2394
Rp2395
ag16
(g20
S'\xcf\xac\x02.\xe4\x87\xe4?'
p2396
tp2397
Rp2398
ag16
(g20
S'\xf3\x0bV\x1d\x81h\xe4?'
p2399
tp2400
Rp2401
ag16
(g20
S'\xbeW\x18\t6n\xe4?'
p2402
tp2403
Rp2404
ag16
(g20
S'Jjh{(\x96\xe4?'
p2405
tp2406
Rp2407
ag16
(g20
S'dD\x87\x05N\x93\xe4?'
p2408
tp2409
Rp2410
ag16
(g20
S'\x15\xb6*g\xdd\x9b\xe4?'
p2411
tp2412
Rp2413
ag16
(g20
S'dD\x87\x05N\x93\xe4?'
p2414
tp2415
Rp2416
ag16
(g20
S'S\xef\x9c\xe0\x9fy\xe4?'
p2417
tp2418
Rp2419
ag16
(g20
S'Jjh{(\x96\xe4?'
p2420
tp2421
Rp2422
ag16
(g20
S'\xaaM\xaf>G\xa7\xe4?'
p2423
tp2424
Rp2425
ag16
(g20
S'\xd6|\xb8\xed\x1a\xbe\xe4?'
p2426
tp2427
Rp2428
ag16
(g20
S'\x97CFtX\xe0\xe4?'
p2429
tp2430
Rp2431
ag16
(g20
S'\xcc\xf7\x83\x88\xa3\xda\xe4?'
p2432
tp2433
Rp2434
ag16
(g20
S'\x12\x01\xac\xc1\x9c\xee\xe4?'
p2435
tp2436
Rp2437
ag16
(g20
S'\xf0V\xd7w@\xbb\xe4?'
p2438
tp2439
Rp2440
ag16
(g20
S'\xb1\x1de\xfe}\xdd\xe4?'
p2441
tp2442
Rp2443
ag16
(g20
S'G\xb5\xe9\xd5\xe7\xe8\xe4?'
p2444
tp2445
Rp2446
ag16
(g20
S'G\xb5\xe9\xd5\xe7\xe8\xe4?'
p2447
tp2448
Rp2449
ag16
(g20
S'\x08|w\\%\x0b\xe5?'
p2450
tp2451
Rp2452
ag16
(g20
S'\xd3\xc79H\xda\x10\xe5?'
p2453
tp2454
Rp2455
ag16
(g20
S'\xa8\x980\x99\x06\xfa\xe4?'
p2456
tp2457
Rp2458
ag16
(g20
S'X\n\xd4\xfa\x95\x02\xe5?'
p2459
tp2460
Rp2461
ag16
(g20
S'\x9e\x13\xfc3\x8f\x16\xe5?'
p2462
tp2463
Rp2464
ag16
(g20
S'\x839\xdd\xa9i\x19\xe5?'
p2465
tp2466
Rp2467
ag16
(g20
S'\x94\x8e\xc7\xce\x173\xe5?'
p2468
tp2469
Rp2470
ag16
(g20
S'\x08|w\\%\x0b\xe5?'
p2471
tp2472
Rp2473
ag16
(g20
S'b\x8f\x08`\r\xe6\xe4?'
p2474
tp2475
Rp2476
ag16
(g20
S'\xb8\xed\x1a\xbe\xb4\x13\xe5?'
p2477
tp2478
Rp2479
ag16
(g20
S'\x9e\x13\xfc3\x8f\x16\xe5?'
p2480
tp2481
Rp2482
ag16
(g20
S'\xafh\xe6X=0\xe5?'
p2483
tp2484
Rp2485
ag16
(g20
S"\xfe\xf6B\xf7\xad'\xe5?"
p2486
tp2487
Rp2488
ag16
(g20
S'_\xda\x89\xba\xcc8\xe5?'
p2489
tp2490
Rp2491
ag16
(g20
S'i_\xbe\x1fD\x1c\xe5?'
p2492
tp2493
Rp2494
ag16
(g20
S'\x19\xd1a\x81\xd3$\xe5?'
p2495
tp2496
Rp2497
ag16
(g20
S'4\xab\x80\x0b\xf9!\xe5?'
p2498
tp2499
Rp2500
ag16
(g20
S'i_\xbe\x1fD\x1c\xe5?'
p2501
tp2502
Rp2503
ag16
(g20
S"\xfe\xf6B\xf7\xad'\xe5?"
p2504
tp2505
Rp2506
ag16
(g20
S'\xafh\xe6X=0\xe5?'
p2507
tp2508
Rp2509
ag16
(g20
S'*&L\xa6\x81>\xe5?'
p2510
tp2511
Rp2512
ag16
(g20
S'\x8a\t\x93i\xa0O\xe5?'
p2513
tp2514
Rp2515
ag16
(g20
S'\xafh\xe6X=0\xe5?'
p2516
tp2517
Rp2518
ag16
(g20
S'\xe4\x1c$m\x88*\xe5?'
p2519
tp2520
Rp2521
ag16
(g20
S'_\xda\x89\xba\xcc8\xe5?'
p2522
tp2523
Rp2524
ag16
(g20
S'\xa5\xe3\xb1\xf3\xc5L\xe5?'
p2525
tp2526
Rp2527
ag16
(g20
S'_\xda\x89\xba\xcc8\xe5?'
p2528
tp2529
Rp2530
ag16
(g20
S'\xb68\x9c\x18tf\xe5?'
p2531
tp2532
Rp2533
ag16
(g20
S"\xfe\xf6B\xf7\xad'\xe5?"
p2534
tp2535
Rp2536
ag16
(g20
S'X\n\xd4\xfa\x95\x02\xe5?'
p2537
tp2538
Rp2539
ag16
(g20
S'\xafh\xe6X=0\xe5?'
p2540
tp2541
Rp2542
ag16
(g20
S';{6\xcb/X\xe5?'
p2543
tp2544
Rp2545
ag16
(g20
S'\xda\x97\xef\x07\x11G\xe5?'
p2546
tp2547
Rp2548
ag16
(g20
S'\r\x97\xaev\x1b\x94\xe5?'
p2549
tp2550
Rp2551
ag16
(g20
S'p/t\xdfzR\xe5?'
p2552
tp2553
Rp2554
ag16
(g20
S'\xac\xb3g\xb3\xfc\x82\xe5?'
p2555
tp2556
Rp2557
ag16
(g20
S'\x9b^}\x8eNi\xe5?'
p2558
tp2559
Rp2560
ag16
(g20
S'\xc0\xbd\xd0}\xebI\xe5?'
p2561
tp2562
Rp2563
ag16
(g20
S'\xb68\x9c\x18tf\xe5?'
p2564
tp2565
Rp2566
ag16
(g20
S'\x81\x84^\x04)l\xe5?'
p2567
tp2568
Rp2569
ag16
(g20
S'\x03\x12z\x11\xa4\xb0\xe5?'
p2570
tp2571
Rp2572
ag16
(g20
S'\\%\x0b\x15\x8c\x8b\xe5?'
p2573
tp2574
Rp2575
ag16
(g20
S'\xbd\x08R\xd8\xaa\x9c\xe5?'
p2576
tp2577
Rp2578
ag16
(g20
S'\x92\xd9H)\xd7\x85\xe5?'
p2579
tp2580
Rp2581
ag16
(g20
S'd\xf5\xc0\xd4\xc2\xc1\xe5?'
p2582
tp2583
Rp2584
ag16
(g20
S'\x14gd6R\xca\xe5?'
p2585
tp2586
Rp2587
ag16
(g20
S'mz\xf59:\xa5\xe5?'
p2588
tp2589
Rp2590
ag16
(g20
S'\xf9\x8cE\xac,\xcd\xe5?'
p2591
tp2592
Rp2593
ag16
(g20
S'\xa0y\xb4\xa8D\xf2\xe5?'
p2594
tp2595
Rp2596
ag16
(g20
S'\xaa\xfe\xe8\r\xbc\xd5\xe5?'
p2597
tp2598
Rp2599
ag16
(g20
S'\\%\x0b\x15\x8c\x8b\xe5?'
p2600
tp2601
Rp2602
ag16
(g20
S'\\%\x0b\x15\x8c\x8b\xe5?'
p2603
tp2604
Rp2605
ag16
(g20
S'\xe1g\xa5\xc7G}\xe5?'
p2606
tp2607
Rp2608
ag16
(g20
S'\xa2.3N\x85\x9f\xe5?'
p2609
tp2610
Rp2611
ag16
(g20
S'S\xa0\xd6\xaf\x14\xa8\xe5?'
p2612
tp2613
Rp2614
ag16
(g20
S'\xa2.3N\x85\x9f\xe5?'
p2615
tp2616
Rp2617
ag16
(g20
S'~\xcf\xdf^\xe8\xbe\xe5?'
p2618
tp2619
Rp2620
ag16
(g20
S"'q\xcd\x00A\x91\xe5?"
p2621
tp2622
Rp2623
ag16
(g20
S'\xdf\xb2&"\x07\xd0\xe5?'
p2624
tp2625
Rp2626
ag16
(g20
S'\xd8\xe2pb\xd0\x99\xe5?'
p2627
tp2628
Rp2629
ag16
(g20
S'\xdf\xb2&"\x07\xd0\xe5?'
p2630
tp2631
Rp2632
ag16
(g20
S'\x1b7\x1a\xf6\x88\x00\xe6?'
p2633
tp2634
Rp2635
ag16
(g20
S'|\x1aa\xb9\xa7\x11\xe6?'
p2636
tp2637
Rp2638
ag16
(g20
S'\xe87[\x87~\xb3\xe5?'
p2639
tp2640
Rp2641
ag16
(g20
S'.A\x83\xc0w\xc7\xe5?'
p2642
tp2643
Rp2644
ag16
(g20
S'\xf9\x8cE\xac,\xcd\xe5?'
p2645
tp2646
Rp2647
ag16
(g20
S'\x8f$\xca\x83\x96\xd8\xe5?'
p2648
tp2649
Rp2650
ag16
(g20
S'8\xc6\xb7%\xef\xaa\xe5?'
p2651
tp2652
Rp2653
ag16
(g20
S'\xf2\xbc\x8f\xec\xf5\x96\xe5?'
p2654
tp2655
Rp2656
ag16
(g20
S'\x1e\xec\x98\x9b\xc9\xad\xe5?'
p2657
tp2658
Rp2659
ag16
(g20
S'8\xc6\xb7%\xef\xaa\xe5?'
p2660
tp2661
Rp2662
ag16
(g20
S'\xce]<\xfdX\xb6\xe5?'
p2663
tp2664
Rp2665
ag16
(g20
S'%\xbcN[\x00\xe4\xe5?'
p2666
tp2667
Rp2668
ag16
(g20
S'\x88T\x14\xc4_\xa2\xe5?'
p2669
tp2670
Rp2671
ag16
(g20
S'\x8f$\xca\x83\x96\xd8\xe5?'
p2672
tp2673
Rp2674
ag16
(g20
S'd\xf5\xc0\xd4\xc2\xc1\xe5?'
p2675
tp2676
Rp2677
ag16
(g20
S'd\xf5\xc0\xd4\xc2\xc1\xe5?'
p2678
tp2679
Rp2680
ag16
(g20
S'tJ\xab\xf9p\xdb\xe5?'
p2681
tp2682
Rp2683
ag16
(g20
S'Zp\x8coK\xde\xe5?'
p2684
tp2685
Rp2686
ag16
(g20
S'\xa0y\xb4\xa8D\xf2\xe5?'
p2687
tp2688
Rp2689
ag16
(g20
S'\x85\x9f\x95\x1e\x1f\xf5\xe5?'
p2690
tp2691
Rp2692
ag16
(g20
S'\n\xe2/\xd1\xda\xe6\xe5?'
p2693
tp2694
Rp2695
ag16
(g20
S'Zp\x8coK\xde\xe5?'
p2696
tp2697
Rp2698
ag16
(g20
S'\x85\x9f\x95\x1e\x1f\xf5\xe5?'
p2699
tp2700
Rp2701
ag16
(g20
S'\xcb\xa8\xbdW\x18\t\xe6?'
p2702
tp2703
Rp2704
ag16
(g20
S'\x8coK\xdeU+\xe6?'
p2705
tp2706
Rp2707
ag16
(g20
S'\xa7Ijh{(\xe6?'
p2708
tp2709
Rp2710
ag16
(g20
S'6\x119\x80\xae\xfd\xe5?'
p2711
tp2712
Rp2713
ag16
(g20
S'6\x119\x80\xae\xfd\xe5?'
p2714
tp2715
Rp2716
ag16
(g20
S'\x1b7\x1a\xf6\x88\x00\xe6?'
p2717
tp2718
Rp2719
ag16
(g20
S'\n\xe2/\xd1\xda\xe6\xe5?'
p2720
tp2721
Rp2722
ag16
(g20
S'Ff#\xa5\\\x17\xe6?'
p2723
tp2724
Rp2725
ag16
(g20
S'|\x1aa\xb9\xa7\x11\xe6?'
p2726
tp2727
Rp2728
ag16
(g20
S'\x8f$\xca\x83\x96\xd8\xe5?'
p2729
tp2730
Rp2731
ag16
(g20
S'a@B/\x82\x14\xe6?'
p2732
tp2733
Rp2734
ag16
(g20
S'a@B/\x82\x14\xe6?'
p2735
tp2736
Rp2737
ag16
(g20
S'\x08-\xb1+\x9a9\xe6?'
p2738
tp2739
Rp2740
ag16
(g20
S'r\x95,T0.\xe6?'
p2741
tp2742
Rp2743
ag16
(g20
S'\x8coK\xdeU+\xe6?'
p2744
tp2745
Rp2746
ag16
(g20
S'\x9d\xc45\x03\x04E\xe6?'
p2747
tp2748
Rp2749
ag16
(g20
S'\xa0y\xb4\xa8D\xf2\xe5?'
p2750
tp2751
Rp2752
ag16
(g20
S'\xc2#\x89\xf2\xa0%\xe6?'
p2753
tp2754
Rp2755
ag16
(g20
S',\x8c\x04\x1b7\x1a\xe6?'
p2756
tp2757
Rp2758
ag16
(g20
S'6\x119\x80\xae\xfd\xe5?'
p2759
tp2760
Rp2761
ag16
(g20
S'\x00]\xfbkc\x03\xe6?'
p2762
tp2763
Rp2764
ag16
(g20
S'6\x119\x80\xae\xfd\xe5?'
p2765
tp2766
Rp2767
ag16
(g20
S'\x96\xf4\x7fC\xcd\x0e\xe6?'
p2768
tp2769
Rp2770
ag16
(g20
S'Ff#\xa5\\\x17\xe6?'
p2771
tp2772
Rp2773
ag16
(g20
S'\xcb\xa8\xbdW\x18\t\xe6?'
p2774
tp2775
Rp2776
ag16
(g20
S'\xe6\x82\xdc\xe1=\x06\xe6?'
p2777
tp2778
Rp2779
ag16
(g20
S'\xf7\xd7\xc6\x06\xec\x1f\xe6?'
p2780
tp2781
Rp2782
ag16
(g20
S'\x00]\xfbkc\x03\xe6?'
p2783
tp2784
Rp2785
ag16
(g20
S'\xb1\xce\x9e\xcd\xf2\x0b\xe6?'
p2786
tp2787
Rp2788
ag16
(g20
S'k\xc5v\x94\xf9\xf7\xe5?'
p2789
tp2790
Rp2791
ag16
(g20
S'\x00]\xfbkc\x03\xe6?'
p2792
tp2793
Rp2794
ag16
(g20
S'\xe6\x82\xdc\xe1=\x06\xe6?'
p2795
tp2796
Rp2797
ag16
(g20
S'%\xbcN[\x00\xe4\xe5?'
p2798
tp2799
Rp2800
ag16
(g20
S'Ff#\xa5\\\x17\xe6?'
p2801
tp2802
Rp2803
ag16
(g20
S'6\x119\x80\xae\xfd\xe5?'
p2804
tp2805
Rp2806
ag16
(g20
S'\x85\x9f\x95\x1e\x1f\xf5\xe5?'
p2807
tp2808
Rp2809
ag16
(g20
S'Zp\x8coK\xde\xe5?'
p2810
tp2811
Rp2812
ag16
(g20
S'|\x1aa\xb9\xa7\x11\xe6?'
p2813
tp2814
Rp2815
ag16
(g20
S'\x85\x9f\x95\x1e\x1f\xf5\xe5?'
p2816
tp2817
Rp2818
ag16
(g20
S'\xd5-\xf2\xbc\x8f\xec\xe5?'
p2819
tp2820
Rp2821
ag16
(g20
S'\x85\x9f\x95\x1e\x1f\xf5\xe5?'
p2822
tp2823
Rp2824
ag16
(g20
S'k\xc5v\x94\xf9\xf7\xe5?'
p2825
tp2826
Rp2827
ag16
(g20
S'Ff#\xa5\\\x17\xe6?'
p2828
tp2829
Rp2830
ag16
(g20
S'\xd5-\xf2\xbc\x8f\xec\xe5?'
p2831
tp2832
Rp2833
ag16
(g20
S'\x96\xf4\x7fC\xcd\x0e\xe6?'
p2834
tp2835
Rp2836
ag16
(g20
S'\xc2#\x89\xf2\xa0%\xe6?'
p2837
tp2838
Rp2839
ag16
(g20
S'\xe6\x82\xdc\xe1=\x06\xe6?'
p2840
tp2841
Rp2842
ag16
(g20
S',\x8c\x04\x1b7\x1a\xe6?'
p2843
tp2844
Rp2845
ag16
(g20
S'\xc2#\x89\xf2\xa0%\xe6?'
p2846
tp2847
Rp2848
ag16
(g20
S'\xe6\x82\xdc\xe1=\x06\xe6?'
p2849
tp2850
Rp2851
ag16
(g20
S'\xcb\xa8\xbdW\x18\t\xe6?'
p2852
tp2853
Rp2854
ag16
(g20
S'a@B/\x82\x14\xe6?'
p2855
tp2856
Rp2857
ag16
(g20
S'\xdc\xfd\xa7|\xc6"\xe6?'
p2858
tp2859
Rp2860
ag16
(g20
S',\x8c\x04\x1b7\x1a\xe6?'
p2861
tp2862
Rp2863
ag16
(g20
S'\xc2#\x89\xf2\xa0%\xe6?'
p2864
tp2865
Rp2866
ag16
(g20
S'\xd2xs\x17O?\xe6?'
p2867
tp2868
Rp2869
ag16
(g20
S'r\x95,T0.\xe6?'
p2870
tp2871
Rp2872
ag16
(g20
S'\xdc\xfd\xa7|\xc6"\xe6?'
p2873
tp2874
Rp2875
ag16
(g20
S'\xedR\x92\xa1t<\xe6?'
p2876
tp2877
Rp2878
ag16
(g20
S'\xedR\x92\xa1t<\xe6?'
p2879
tp2880
Rp2881
ag16
(g20
S'\xedR\x92\xa1t<\xe6?'
p2882
tp2883
Rp2884
ag16
(g20
S'a@B/\x82\x14\xe6?'
p2885
tp2886
Rp2887
ag16
(g20
S'\x9d\xc45\x03\x04E\xe6?'
p2888
tp2889
Rp2890
ag16
(g20
S'"\x07\xd0\xb5\xbf6\xe6?'
p2891
tp2892
Rp2893
ag16
(g20
S'=\xe1\xee?\xe53\xe6?'
p2894
tp2895
Rp2896
ag16
(g20
S'"\x07\xd0\xb5\xbf6\xe6?'
p2897
tp2898
Rp2899
ag16
(g20
S'\xd2xs\x17O?\xe6?'
p2900
tp2901
Rp2902
ag16
(g20
S'\x9d\xc45\x03\x04E\xe6?'
p2903
tp2904
Rp2905
ag16
(g20
S'3\\\xba\xdamP\xe6?'
p2906
tp2907
Rp2908
ag16
(g20
S'\x08-\xb1+\x9a9\xe6?'
p2909
tp2910
Rp2911
ag16
(g20
S'"\x07\xd0\xb5\xbf6\xe6?'
p2912
tp2913
Rp2914
ag16
(g20
S'\xd2xs\x17O?\xe6?'
p2915
tp2916
Rp2917
ag16
(g20
S'\xa7Ijh{(\xe6?'
p2918
tp2919
Rp2920
ag16
(g20
S'h\x10\xf8\xee\xb8J\xe6?'
p2921
tp2922
Rp2923
ag16
(g20
S'\xedR\x92\xa1t<\xe6?'
p2924
tp2925
Rp2926
ag16
(g20
S'\xd2xs\x17O?\xe6?'
p2927
tp2928
Rp2929
ag16
(g20
S'\xa7Ijh{(\xe6?'
p2930
tp2931
Rp2932
ag16
(g20
S'\xfe\xa7|\xc6"V\xe6?'
p2933
tp2934
Rp2935
ag16
(g20
S'h\x10\xf8\xee\xb8J\xe6?'
p2936
tp2937
Rp2938
ag16
(g20
S'\xfe\xa7|\xc6"V\xe6?'
p2939
tp2940
Rp2941
ag16
(g20
S'\xae\x19 (\xb2^\xe6?'
p2942
tp2943
Rp2944
ag16
(g20
S'h\x10\xf8\xee\xb8J\xe6?'
p2945
tp2946
Rp2947
ag16
(g20
S'\x8a\xba\xcc8\x15~\xe6?'
p2948
tp2949
Rp2950
ag16
(g20
S'\xdaH)\xd7\x85u\xe6?'
p2951
tp2952
Rp2953
ag16
(g20
S'\xfe\xa7|\xc6"V\xe6?'
p2954
tp2955
Rp2956
ag16
(g20
S'\xc9\xf3>\xb2\xd7[\xe6?'
p2957
tp2958
Rp2959
ag16
(g20
S')\xd7\x85u\xf6l\xe6?'
p2960
tp2961
Rp2962
ag16
(g20
S'\x18\x82\x9bPHS\xe6?'
p2963
tp2964
Rp2965
ag16
(g20
S'o\xe0\xad\xae\xef\x80\xe6?'
p2966
tp2967
Rp2968
ag16
(g20
S'\xfe\xa7|\xc6"V\xe6?'
p2969
tp2970
Rp2971
ag16
(g20
S'o\xe0\xad\xae\xef\x80\xe6?'
p2972
tp2973
Rp2974
ag16
(g20
S')\xd7\x85u\xf6l\xe6?'
p2975
tp2976
Rp2977
ag16
(g20
S' RQ\x10\x7f\x89\xe6?'
p2978
tp2979
Rp2980
ag16
(g20
S'\xa4\x94\xeb\xc2:{\xe6?'
p2981
tp2982
Rp2983
ag16
(g20
S'\xf4"Ha\xabr\xe6?'
p2984
tp2985
Rp2986
ag16
(g20
S'\xbfn\nM`x\xe6?'
p2987
tp2988
Rp2989
ag16
(g20
S'\xacd\xa1\x82q\xb1\xe6?'
p2990
tp2991
Rp2992
ag16
(g20
S'\xdaH)\xd7\x85u\xe6?'
p2993
tp2994
Rp2995
ag16
(g20
S'\xa4\x94\xeb\xc2:{\xe6?'
p2996
tp2997
Rp2998
ag16
(g20
S'o\xe0\xad\xae\xef\x80\xe6?'
p2999
tp3000
Rp3001
ag16
(g20
S')\xd7\x85u\xf6l\xe6?'
p3002
tp3003
Rp3004
ag16
(g20
S'ye\xe2\x13gd\xe6?'
p3005
tp3006
Rp3007
ag16
(g20
S'o\xe0\xad\xae\xef\x80\xe6?'
p3008
tp3009
Rp3010
ag16
(g20
S'^\x8b\xc3\x89Ag\xe6?'
p3011
tp3012
Rp3013
ag16
(g20
S'\xd0\xc3\xf4q\x0e\x92\xe6?'
p3014
tp3015
Rp3016
ag16
(g20
S'\x18\x82\x9bPHS\xe6?'
p3017
tp3018
Rp3019
ag16
(g20
S'\xdaH)\xd7\x85u\xe6?'
p3020
tp3021
Rp3022
ag16
(g20
S')\xd7\x85u\xf6l\xe6?'
p3023
tp3024
Rp3025
ag16
(g20
S'\xae\x19 (\xb2^\xe6?'
p3026
tp3027
Rp3028
ag16
(g20
S')\xd7\x85u\xf6l\xe6?'
p3029
tp3030
Rp3031
ag16
(g20
S'\xa4\x94\xeb\xc2:{\xe6?'
p3032
tp3033
Rp3034
ag16
(g20
S'h\x10\xf8\xee\xb8J\xe6?'
p3035
tp3036
Rp3037
ag16
(g20
S'\xae\x19 (\xb2^\xe6?'
p3038
tp3039
Rp3040
ag16
(g20
S'ye\xe2\x13gd\xe6?'
p3041
tp3042
Rp3043
ag16
(g20
S'\xf4"Ha\xabr\xe6?'
p3044
tp3045
Rp3046
ag16
(g20
S')\xd7\x85u\xf6l\xe6?'
p3047
tp3048
Rp3049
ag16
(g20
S'K\x81Z\xbfR\xa0\xe6?'
p3050
tp3051
Rp3052
ag16
(g20
S'\x05x2\x86Y\x8c\xe6?'
p3053
tp3054
Rp3055
ag16
(g20
S'\x94?\x01\x9e\x8ca\xe6?'
p3056
tp3057
Rp3058
ag16
(g20
S'\xea\x9d\x13\xfc3\x8f\xe6?'
p3059
tp3060
Rp3061
ag16
(g20
S'\xa4\x94\xeb\xc2:{\xe6?'
p3062
tp3063
Rp3064
ag16
(g20
S'\xf4"Ha\xabr\xe6?'
p3065
tp3066
Rp3067
ag16
(g20
S'\xe3\xcd]<\xfdX\xe6?'
p3068
tp3069
Rp3070
ag16
(g20
S'\xbfn\nM`x\xe6?'
p3071
tp3072
Rp3073
ag16
(g20
S'\xae\x19 (\xb2^\xe6?'
p3074
tp3075
Rp3076
ag16
(g20
S'U\x06\x8f$\xca\x83\xe6?'
p3077
tp3078
Rp3079
ag16
(g20
S'D\xb1\xa4\xff\x1bj\xe6?'
p3080
tp3081
Rp3082
ag16
(g20
S'\x8a\xba\xcc8\x15~\xe6?'
p3083
tp3084
Rp3085
ag16
(g20
S'\xbfn\nM`x\xe6?'
p3086
tp3087
Rp3088
ag16
(g20
S'o\xe0\xad\xae\xef\x80\xe6?'
p3089
tp3090
Rp3091
ag16
(g20
S'\x8a\xba\xcc8\x15~\xe6?'
p3092
tp3093
Rp3094
ag16
(g20
S':,p\x9a\xa4\x86\xe6?'
p3095
tp3096
Rp3097
ag16
(g20
S'\xae\x19 (\xb2^\xe6?'
p3098
tp3099
Rp3100
ag16
(g20
S'\x05x2\x86Y\x8c\xe6?'
p3101
tp3102
Rp3103
ag16
(g20
S'K\x81Z\xbfR\xa0\xe6?'
p3104
tp3105
Rp3106
ag16
(g20
S'ye\xe2\x13gd\xe6?'
p3107
tp3108
Rp3109
ag16
(g20
S'\xdaH)\xd7\x85u\xe6?'
p3110
tp3111
Rp3112
ag16
(g20
S'D\xb1\xa4\xff\x1bj\xe6?'
p3113
tp3114
Rp3115
ag16
(g20
S'\xae\x19 (\xb2^\xe6?'
p3116
tp3117
Rp3118
ag16
(g20
S'\xea\x9d\x13\xfc3\x8f\xe6?'
p3119
tp3120
Rp3121
ag16
(g20
S'\xbfn\nM`x\xe6?'
p3122
tp3123
Rp3124
ag16
(g20
S'\xa4\x94\xeb\xc2:{\xe6?'
p3125
tp3126
Rp3127
ag16
(g20
S'\xd0\xc3\xf4q\x0e\x92\xe6?'
p3128
tp3129
Rp3130
ag16
(g20
S'\xf4"Ha\xabr\xe6?'
p3131
tp3132
Rp3133
ag16
(g20
S'\xd0\xc3\xf4q\x0e\x92\xe6?'
p3134
tp3135
Rp3136
ag16
(g20
S'\x9b\x0f\xb7]\xc3\x97\xe6?'
p3137
tp3138
Rp3139
ag16
(g20
S'\xb5\xe9\xd5\xe7\xe8\x94\xe6?'
p3140
tp3141
Rp3142
ag16
(g20
S'\x91\x8a\x82\xf8K\xb4\xe6?'
p3143
tp3144
Rp3145
ag16
(g20
S'f[yIx\x9d\xe6?'
p3146
tp3147
Rp3148
ag16
(g20
S'a@B/\x82\x14\xe6?'
p3149
tp3150
Rp3151
ag16
(g20
S'\xc9\xf3>\xb2\xd7[\xe6?'
p3152
tp3153
Rp3154
ag16
(g20
S'\xd0\xc3\xf4q\x0e\x92\xe6?'
p3155
tp3156
Rp3157
ag16
(g20
S'K\x81Z\xbfR\xa0\xe6?'
p3158
tp3159
Rp3160
ag16
(g20
S'\xe1\x18\xdf\x96\xbc\xab\xe6?'
p3161
tp3162
Rp3163
ag16
(g20
S'\xacd\xa1\x82q\xb1\xe6?'
p3164
tp3165
Rp3166
ag16
(g20
S'\x0cH\xe8E\x90\xc2\xe6?'
p3167
tp3168
Rp3169
ag16
(g20
S'U\x06\x8f$\xca\x83\xe6?'
p3170
tp3171
Rp3172
ag16
(g20
S'\x05x2\x86Y\x8c\xe6?'
p3173
tp3174
Rp3175
ag16
(g20
S'\xf4"Ha\xabr\xe6?'
p3176
tp3177
Rp3178
ag16
(g20
S'\xea\x9d\x13\xfc3\x8f\xe6?'
p3179
tp3180
Rp3181
ag16
(g20
S'\xd0\xc3\xf4q\x0e\x92\xe6?'
p3182
tp3183
Rp3184
ag16
(g20
S'0\xa7;5-\xa3\xe6?'
p3185
tp3186
Rp3187
ag16
(g20
S'\xb5\xe9\xd5\xe7\xe8\x94\xe6?'
p3188
tp3189
Rp3190
ag16
(g20
S'U\x06\x8f$\xca\x83\xe6?'
p3191
tp3192
Rp3193
ag16
(g20
S' RQ\x10\x7f\x89\xe6?'
p3194
tp3195
Rp3196
ag16
(g20
S'^\x8b\xc3\x89Ag\xe6?'
p3197
tp3198
Rp3199
ag16
(g20
S'\x9b\x0f\xb7]\xc3\x97\xe6?'
p3200
tp3201
Rp3202
ag16
(g20
S'\x805\x98\xd3\x9d\x9a\xe6?'
p3203
tp3204
Rp3205
ag16
(g20
S'\x8a\xba\xcc8\x15~\xe6?'
p3206
tp3207
Rp3208
ag16
(g20
S'\xf4"Ha\xabr\xe6?'
p3209
tp3210
Rp3211
ag16
(g20
S')\xd7\x85u\xf6l\xe6?'
p3212
tp3213
Rp3214
ag16
(g20
S'\xa4\x94\xeb\xc2:{\xe6?'
p3215
tp3216
Rp3217
ag16
(g20
S'^\x8b\xc3\x89Ag\xe6?'
p3218
tp3219
Rp3220
ag16
(g20
S')\xd7\x85u\xf6l\xe6?'
p3221
tp3222
Rp3223
ag16
(g20
S'D\xb1\xa4\xff\x1bj\xe6?'
p3224
tp3225
Rp3226
ag16
(g20
S'\x0f\xfdf\xeb\xd0o\xe6?'
p3227
tp3228
Rp3229
ag16
(g20
S'\x16\xcd\x1c\xab\x07\xa6\xe6?'
p3230
tp3231
Rp3232
ag16
(g20
S':,p\x9a\xa4\x86\xe6?'
p3233
tp3234
Rp3235
ag16
(g20
S'\x8a\xba\xcc8\x15~\xe6?'
p3236
tp3237
Rp3238
ag16
(g20
S'ye\xe2\x13gd\xe6?'
p3239
tp3240
Rp3241
ag16
(g20
S'K\x81Z\xbfR\xa0\xe6?'
p3242
tp3243
Rp3244
ag16
(g20
S'\xa4\x94\xeb\xc2:{\xe6?'
p3245
tp3246
Rp3247
ag16
(g20
S'\xc9\xf3>\xb2\xd7[\xe6?'
p3248
tp3249
Rp3250
ag16
(g20
S'\xdaH)\xd7\x85u\xe6?'
p3251
tp3252
Rp3253
ag16
(g20
S'\xa4\x94\xeb\xc2:{\xe6?'
p3254
tp3255
Rp3256
ag16
(g20
S':,p\x9a\xa4\x86\xe6?'
p3257
tp3258
Rp3259
ag16
(g20
S':,p\x9a\xa4\x86\xe6?'
p3260
tp3261
Rp3262
ag16
(g20
S'\xb5\xe9\xd5\xe7\xe8\x94\xe6?'
p3263
tp3264
Rp3265
ag16
(g20
S'\xa7Ijh{(\xe6?'
p3266
tp3267
Rp3268
ag16
(g20
S'o\xe0\xad\xae\xef\x80\xe6?'
p3269
tp3270
Rp3271
ag16
(g20
S'o\xe0\xad\xae\xef\x80\xe6?'
p3272
tp3273
Rp3274
ag16
(g20
S'\xae\x19 (\xb2^\xe6?'
p3275
tp3276
Rp3277
ag16
(g20
S'U\x06\x8f$\xca\x83\xe6?'
p3278
tp3279
Rp3280
ag16
(g20
S'3\\\xba\xdamP\xe6?'
p3281
tp3282
Rp3283
ag16
(g20
S'\x11\xb2\xe5\x90\x11\x1d\xe6?'
p3284
tp3285
Rp3286
ag16
(g20
S'^\x8b\xc3\x89Ag\xe6?'
p3287
tp3288
Rp3289
ag16
(g20
S' RQ\x10\x7f\x89\xe6?'
p3290
tp3291
Rp3292
ag16
(g20
S'\xd0\xc3\xf4q\x0e\x92\xe6?'
p3293
tp3294
Rp3295
ag16
(g20
S')\xd7\x85u\xf6l\xe6?'
p3296
tp3297
Rp3298
ag16
(g20
S'\x05x2\x86Y\x8c\xe6?'
p3299
tp3300
Rp3301
ag16
(g20
S'\x8a\xba\xcc8\x15~\xe6?'
p3302
tp3303
Rp3304
ag16
(g20
S'\x18\x82\x9bPHS\xe6?'
p3305
tp3306
Rp3307
ag16
(g20
S'\xbfn\nM`x\xe6?'
p3308
tp3309
Rp3310
ag16
(g20
S'^\x8b\xc3\x89Ag\xe6?'
p3311
tp3312
Rp3313
ag16
(g20
S'3\\\xba\xdamP\xe6?'
p3314
tp3315
Rp3316
ag16
(g20
S'\xdaH)\xd7\x85u\xe6?'
p3317
tp3318
Rp3319
ag16
(g20
S'\x8a\xba\xcc8\x15~\xe6?'
p3320
tp3321
Rp3322
ag16
(g20
S'\xf4"Ha\xabr\xe6?'
p3323
tp3324
Rp3325
ag16
(g20
S'\xb8\x9eT\x8d)B\xe6?'
p3326
tp3327
Rp3328
ag16
(g20
S'N6\xd9d\x93M\xe6?'
p3329
tp3330
Rp3331
ag16
(g20
S'o\xe0\xad\xae\xef\x80\xe6?'
p3332
tp3333
Rp3334
ag16
(g20
S'W\xbb\r\xca\n1\xe6?'
p3335
tp3336
Rp3337
ag16
(g20
S'\xa4\x94\xeb\xc2:{\xe6?'
p3338
tp3339
Rp3340
ag16
(g20
S'\x0f\xfdf\xeb\xd0o\xe6?'
p3341
tp3342
Rp3343
ag16
(g20
S'D\xb1\xa4\xff\x1bj\xe6?'
p3344
tp3345
Rp3346
ag16
(g20
S'N6\xd9d\x93M\xe6?'
p3347
tp3348
Rp3349
ag16
(g20
S'\x9d\xc45\x03\x04E\xe6?'
p3350
tp3351
Rp3352
ag16
(g20
S')\xd7\x85u\xf6l\xe6?'
p3353
tp3354
Rp3355
ag16
(g20
S'\xa4\x94\xeb\xc2:{\xe6?'
p3356
tp3357
Rp3358
ag16
(g20
S'\xdaH)\xd7\x85u\xe6?'
p3359
tp3360
Rp3361
ag16
(g20
S'\x83\xea\x16y\xdeG\xe6?'
p3362
tp3363
Rp3364
ag16
(g20
S'\xf4"Ha\xabr\xe6?'
p3365
tp3366
Rp3367
ag16
(g20
S'\x18\x82\x9bPHS\xe6?'
p3368
tp3369
Rp3370
ag16
(g20
S'\xfe\xa7|\xc6"V\xe6?'
p3371
tp3372
Rp3373
ag16
(g20
S'\xd2xs\x17O?\xe6?'
p3374
tp3375
Rp3376
ag16
(g20
S'\xbfn\nM`x\xe6?'
p3377
tp3378
Rp3379
ag16
(g20
S'\x18\x82\x9bPHS\xe6?'
p3380
tp3381
Rp3382
ag16
(g20
S'\x05x2\x86Y\x8c\xe6?'
p3383
tp3384
Rp3385
ag16
(g20
S'D\xb1\xa4\xff\x1bj\xe6?'
p3386
tp3387
Rp3388
ag16
(g20
S')\xd7\x85u\xf6l\xe6?'
p3389
tp3390
Rp3391
ag16
(g20
S'\x05x2\x86Y\x8c\xe6?'
p3392
tp3393
Rp3394
ag16
(g20
S'\x9d\xc45\x03\x04E\xe6?'
p3395
tp3396
Rp3397
ag16
(g20
S':,p\x9a\xa4\x86\xe6?'
p3398
tp3399
Rp3400
ag16
(g20
S'3\\\xba\xdamP\xe6?'
p3401
tp3402
Rp3403
ag16
(g20
S'\xbfn\nM`x\xe6?'
p3404
tp3405
Rp3406
ag16
(g20
S'D\xb1\xa4\xff\x1bj\xe6?'
p3407
tp3408
Rp3409
ag16
(g20
S' RQ\x10\x7f\x89\xe6?'
p3410
tp3411
Rp3412
ag16
(g20
S'N6\xd9d\x93M\xe6?'
p3413
tp3414
Rp3415
ag16
(g20
S'U\x06\x8f$\xca\x83\xe6?'
p3416
tp3417
Rp3418
ag16
(g20
S'\x8a\xba\xcc8\x15~\xe6?'
p3419
tp3420
Rp3421
ag16
(g20
S'\x8a\xba\xcc8\x15~\xe6?'
p3422
tp3423
Rp3424
ag16
(g20
S'\xdaH)\xd7\x85u\xe6?'
p3425
tp3426
Rp3427
ag16
(g20
S'\x805\x98\xd3\x9d\x9a\xe6?'
p3428
tp3429
Rp3430
ag16
(g20
S')\xd7\x85u\xf6l\xe6?'
p3431
tp3432
Rp3433
ag16
(g20
S'\x05x2\x86Y\x8c\xe6?'
p3434
tp3435
Rp3436
ag16
(g20
S'\x805\x98\xd3\x9d\x9a\xe6?'
p3437
tp3438
Rp3439
ag16
(g20
S'\x9b\x0f\xb7]\xc3\x97\xe6?'
p3440
tp3441
Rp3442
ag16
(g20
S'\xd0\xc3\xf4q\x0e\x92\xe6?'
p3443
tp3444
Rp3445
ag16
(g20
S'\xbfn\nM`x\xe6?'
p3446
tp3447
Rp3448
ag16
(g20
S'f[yIx\x9d\xe6?'
p3449
tp3450
Rp3451
ag16
(g20
S'f[yIx\x9d\xe6?'
p3452
tp3453
Rp3454
ag16
(g20
S'\xb5\xe9\xd5\xe7\xe8\x94\xe6?'
p3455
tp3456
Rp3457
ag16
(g20
S':,p\x9a\xa4\x86\xe6?'
p3458
tp3459
Rp3460
ag16
(g20
S'f[yIx\x9d\xe6?'
p3461
tp3462
Rp3463
ag16
(g20
S'\x8a\xba\xcc8\x15~\xe6?'
p3464
tp3465
Rp3466
ag16
(g20
S'\x805\x98\xd3\x9d\x9a\xe6?'
p3467
tp3468
Rp3469
ag16
(g20
S'\x0f\xfdf\xeb\xd0o\xe6?'
p3470
tp3471
Rp3472
ag16
(g20
S'\xe1\x18\xdf\x96\xbc\xab\xe6?'
p3473
tp3474
Rp3475
ag16
(g20
S'\xd0\xc3\xf4q\x0e\x92\xe6?'
p3476
tp3477
Rp3478
ag16
(g20
S'\xa4\x94\xeb\xc2:{\xe6?'
p3479
tp3480
Rp3481
ag16
(g20
S'K\x81Z\xbfR\xa0\xe6?'
p3482
tp3483
Rp3484
ag16
(g20
S'U\x06\x8f$\xca\x83\xe6?'
p3485
tp3486
Rp3487
ag16
(g20
S'f[yIx\x9d\xe6?'
p3488
tp3489
Rp3490
ag16
(g20
S'\xd0\xc3\xf4q\x0e\x92\xe6?'
p3491
tp3492
Rp3493
ag16
(g20
S'\xea\x9d\x13\xfc3\x8f\xe6?'
p3494
tp3495
Rp3496
ag16
(g20
S'ye\xe2\x13gd\xe6?'
p3497
tp3498
Rp3499
ag16
(g20
S'f[yIx\x9d\xe6?'
p3500
tp3501
Rp3502
ag16
(g20
S'\xf4"Ha\xabr\xe6?'
p3503
tp3504
Rp3505
ag16
(g20
S'\xbfn\nM`x\xe6?'
p3506
tp3507
Rp3508
ag16
(g20
S'\xfe\xa7|\xc6"V\xe6?'
p3509
tp3510
Rp3511
ag16
(g20
S'D\xb1\xa4\xff\x1bj\xe6?'
p3512
tp3513
Rp3514
ag16
(g20
S'\x8a\xba\xcc8\x15~\xe6?'
p3515
tp3516
Rp3517
ag16
(g20
S'\xa4\x94\xeb\xc2:{\xe6?'
p3518
tp3519
Rp3520
ag16
(g20
S'\xa4\x94\xeb\xc2:{\xe6?'
p3521
tp3522
Rp3523
ag16
(g20
S':,p\x9a\xa4\x86\xe6?'
p3524
tp3525
Rp3526
ag16
(g20
S'o\xe0\xad\xae\xef\x80\xe6?'
p3527
tp3528
Rp3529
ag16
(g20
S'\xbfn\nM`x\xe6?'
p3530
tp3531
Rp3532
ag16
(g20
S'\xbfn\nM`x\xe6?'
p3533
tp3534
Rp3535
ag16
(g20
S'ye\xe2\x13gd\xe6?'
p3536
tp3537
Rp3538
ag16
(g20
S' RQ\x10\x7f\x89\xe6?'
p3539
tp3540
Rp3541
ag16
(g20
S'\xd0\xc3\xf4q\x0e\x92\xe6?'
p3542
tp3543
Rp3544
ag16
(g20
S'\xa4\x94\xeb\xc2:{\xe6?'
p3545
tp3546
Rp3547
ag16
(g20
S'^\x8b\xc3\x89Ag\xe6?'
p3548
tp3549
Rp3550
ag16
(g20
S'D\xb1\xa4\xff\x1bj\xe6?'
p3551
tp3552
Rp3553
ag16
(g20
S'\xa4\x94\xeb\xc2:{\xe6?'
p3554
tp3555
Rp3556
ag16
(g20
S')\xd7\x85u\xf6l\xe6?'
p3557
tp3558
Rp3559
ag16
(g20
S')\xd7\x85u\xf6l\xe6?'
p3560
tp3561
Rp3562
ag16
(g20
S'\x0f\xfdf\xeb\xd0o\xe6?'
p3563
tp3564
Rp3565
ag16
(g20
S'\x8a\xba\xcc8\x15~\xe6?'
p3566
tp3567
Rp3568
ag16
(g20
S'\x8a\xba\xcc8\x15~\xe6?'
p3569
tp3570
Rp3571
ag16
(g20
S' RQ\x10\x7f\x89\xe6?'
p3572
tp3573
Rp3574
ag16
(g20
S'U\x06\x8f$\xca\x83\xe6?'
p3575
tp3576
Rp3577
ag16
(g20
S'\x05x2\x86Y\x8c\xe6?'
p3578
tp3579
Rp3580
ag16
(g20
S'\x94?\x01\x9e\x8ca\xe6?'
p3581
tp3582
Rp3583
ag16
(g20
S'\xbfn\nM`x\xe6?'
p3584
tp3585
Rp3586
ag16
(g20
S'\x0f\xfdf\xeb\xd0o\xe6?'
p3587
tp3588
Rp3589
ag16
(g20
S'\xea\x9d\x13\xfc3\x8f\xe6?'
p3590
tp3591
Rp3592
ag16
(g20
S':,p\x9a\xa4\x86\xe6?'
p3593
tp3594
Rp3595
ag16
(g20
S'\x8a\xba\xcc8\x15~\xe6?'
p3596
tp3597
Rp3598
ag16
(g20
S'\xbfn\nM`x\xe6?'
p3599
tp3600
Rp3601
ag16
(g20
S'\xfe\xa7|\xc6"V\xe6?'
p3602
tp3603
Rp3604
ag16
(g20
S'\x05x2\x86Y\x8c\xe6?'
p3605
tp3606
Rp3607
ag16
(g20
S'\xa4\x94\xeb\xc2:{\xe6?'
p3608
tp3609
Rp3610
ag16
(g20
S'\xe3\xcd]<\xfdX\xe6?'
p3611
tp3612
Rp3613
ag16
(g20
S'U\x06\x8f$\xca\x83\xe6?'
p3614
tp3615
Rp3616
ag16
(g20
S'\xea\x9d\x13\xfc3\x8f\xe6?'
p3617
tp3618
Rp3619
ag16
(g20
S'\xea\x9d\x13\xfc3\x8f\xe6?'
p3620
tp3621
Rp3622
ag16
(g20
S' RQ\x10\x7f\x89\xe6?'
p3623
tp3624
Rp3625
ag16
(g20
S':,p\x9a\xa4\x86\xe6?'
p3626
tp3627
Rp3628
ag16
(g20
S'\x8a\xba\xcc8\x15~\xe6?'
p3629
tp3630
Rp3631
ag16
(g20
S'\xb5\xe9\xd5\xe7\xe8\x94\xe6?'
p3632
tp3633
Rp3634
ag16
(g20
S'U\x06\x8f$\xca\x83\xe6?'
p3635
tp3636
Rp3637
ag16
(g20
S'\x8a\xba\xcc8\x15~\xe6?'
p3638
tp3639
Rp3640
ag16
(g20
S'ye\xe2\x13gd\xe6?'
p3641
tp3642
Rp3643
ag16
(g20
S':,p\x9a\xa4\x86\xe6?'
p3644
tp3645
Rp3646
ag16
(g20
S'\xf4"Ha\xabr\xe6?'
p3647
tp3648
Rp3649
ag16
(g20
S'0\xa7;5-\xa3\xe6?'
p3650
tp3651
Rp3652
ag16
(g20
S'o\xe0\xad\xae\xef\x80\xe6?'
p3653
tp3654
Rp3655
ag16
(g20
S':,p\x9a\xa4\x86\xe6?'
p3656
tp3657
Rp3658
ag16
(g20
S'0\xa7;5-\xa3\xe6?'
p3659
tp3660
Rp3661
ag16
(g20
S'\xa4\x94\xeb\xc2:{\xe6?'
p3662
tp3663
Rp3664
ag16
(g20
S'^\x8b\xc3\x89Ag\xe6?'
p3665
tp3666
Rp3667
ag16
(g20
S'\x9b\x0f\xb7]\xc3\x97\xe6?'
p3668
tp3669
Rp3670
ag16
(g20
S'\xdaH)\xd7\x85u\xe6?'
p3671
tp3672
Rp3673
ag16
(g20
S'\xd0\xc3\xf4q\x0e\x92\xe6?'
p3674
tp3675
Rp3676
ag16
(g20
S'\xb5\xe9\xd5\xe7\xe8\x94\xe6?'
p3677
tp3678
Rp3679
ag16
(g20
S'o\xe0\xad\xae\xef\x80\xe6?'
p3680
tp3681
Rp3682
ag16
(g20
S'U\x06\x8f$\xca\x83\xe6?'
p3683
tp3684
Rp3685
ag16
(g20
S'o\xe0\xad\xae\xef\x80\xe6?'
p3686
tp3687
Rp3688
ag16
(g20
S'o\xe0\xad\xae\xef\x80\xe6?'
p3689
tp3690
Rp3691
ag16
(g20
S'\x94?\x01\x9e\x8ca\xe6?'
p3692
tp3693
Rp3694
ag16
(g20
S'\xbfn\nM`x\xe6?'
p3695
tp3696
Rp3697
ag16
(g20
S'U\x06\x8f$\xca\x83\xe6?'
p3698
tp3699
Rp3700
ag16
(g20
S'\xfe\xa7|\xc6"V\xe6?'
p3701
tp3702
Rp3703
ag16
(g20
S'D\xb1\xa4\xff\x1bj\xe6?'
p3704
tp3705
Rp3706
ag16
(g20
S'D\xb1\xa4\xff\x1bj\xe6?'
p3707
tp3708
Rp3709
ag16
(g20
S'K\x81Z\xbfR\xa0\xe6?'
p3710
tp3711
Rp3712
ag16
(g20
S'\x94?\x01\x9e\x8ca\xe6?'
p3713
tp3714
Rp3715
ag16
(g20
S'^\x8b\xc3\x89Ag\xe6?'
p3716
tp3717
Rp3718
ag16
(g20
S'D\xb1\xa4\xff\x1bj\xe6?'
p3719
tp3720
Rp3721
ag16
(g20
S'^\x8b\xc3\x89Ag\xe6?'
p3722
tp3723
Rp3724
ag16
(g20
S'\xae\x19 (\xb2^\xe6?'
p3725
tp3726
Rp3727
ag16
(g20
S'\x8a\xba\xcc8\x15~\xe6?'
p3728
tp3729
Rp3730
ag16
(g20
S'N6\xd9d\x93M\xe6?'
p3731
tp3732
Rp3733
ag16
(g20
S'^\x8b\xc3\x89Ag\xe6?'
p3734
tp3735
Rp3736
ag16
(g20
S'\x0f\xfdf\xeb\xd0o\xe6?'
p3737
tp3738
Rp3739
ag16
(g20
S')\xd7\x85u\xf6l\xe6?'
p3740
tp3741
Rp3742
ag16
(g20
S'\xdaH)\xd7\x85u\xe6?'
p3743
tp3744
Rp3745
ag16
(g20
S'\x0f\xfdf\xeb\xd0o\xe6?'
p3746
tp3747
Rp3748
ag16
(g20
S'\xa4\x94\xeb\xc2:{\xe6?'
p3749
tp3750
Rp3751
ag16
(g20
S':,p\x9a\xa4\x86\xe6?'
p3752
tp3753
Rp3754
ag16
(g20
S'\x9b\x0f\xb7]\xc3\x97\xe6?'
p3755
tp3756
Rp3757
ag16
(g20
S'\x9b\x0f\xb7]\xc3\x97\xe6?'
p3758
tp3759
Rp3760
ag16
(g20
S'\x9b\x0f\xb7]\xc3\x97\xe6?'
p3761
tp3762
Rp3763
ag16
(g20
S'\xe1\x18\xdf\x96\xbc\xab\xe6?'
p3764
tp3765
Rp3766
ag16
(g20
S'\xc6>\xc0\x0c\x97\xae\xe6?'
p3767
tp3768
Rp3769
ag16
(g20
S'\xe1\x18\xdf\x96\xbc\xab\xe6?'
p3770
tp3771
Rp3772
ag16
(g20
S' RQ\x10\x7f\x89\xe6?'
p3773
tp3774
Rp3775
ag16
(g20
S'A\xfc%Z\xdb\xbc\xe6?'
p3776
tp3777
Rp3778
ag16
(g20
S'v\xb0cn&\xb7\xe6?'
p3779
tp3780
Rp3781
ag16
(g20
S'f[yIx\x9d\xe6?'
p3782
tp3783
Rp3784
ag16
(g20
S'K\x81Z\xbfR\xa0\xe6?'
p3785
tp3786
Rp3787
ag16
(g20
S'\xacd\xa1\x82q\xb1\xe6?'
p3788
tp3789
Rp3790
ag16
(g20
S'o\xe0\xad\xae\xef\x80\xe6?'
p3791
tp3792
Rp3793
ag16
(g20
S'\x8a\xba\xcc8\x15~\xe6?'
p3794
tp3795
Rp3796
ag16
(g20
S'\xe1\x18\xdf\x96\xbc\xab\xe6?'
p3797
tp3798
Rp3799
ag16
(g20
S'v\xb0cn&\xb7\xe6?'
p3800
tp3801
Rp3802
ag16
(g20
S'\xd7\x93\xaa1E\xc8\xe6?'
p3803
tp3804
Rp3805
ag16
(g20
S'\xc6>\xc0\x0c\x97\xae\xe6?'
p3806
tp3807
Rp3808
ag16
(g20
S'\xa2\xdfl\x1d\xfa\xcd\xe6?'
p3809
tp3810
Rp3811
ag16
(g20
S'\\\xd6D\xe4\x00\xba\xe6?'
p3812
tp3813
Rp3814
ag16
(g20
S'\xfb\xf2\xfd \xe2\xa8\xe6?'
p3815
tp3816
Rp3817
ag16
(g20
S'\xb5\xe9\xd5\xe7\xe8\x94\xe6?'
p3818
tp3819
Rp3820
ag16
(g20
S'\'"\x07\xd0\xb5\xbf\xe6?'
p3821
tp3822
Rp3823
ag16
(g20
S'\x02\xc3\xb3\xe0\x18\xdf\xe6?'
p3824
tp3825
Rp3826
ag16
(g20
S'\xacd\xa1\x82q\xb1\xe6?'
p3827
tp3828
Rp3829
ag16
(g20
S'\x0cH\xe8E\x90\xc2\xe6?'
p3830
tp3831
Rp3832
ag16
(g20
S'0\xa7;5-\xa3\xe6?'
p3833
tp3834
Rp3835
ag16
(g20
S'\'"\x07\xd0\xb5\xbf\xe6?'
p3836
tp3837
Rp3838
ag16
(g20
S'm+/\t\xaf\xd3\xe6?'
p3839
tp3840
Rp3841
ag16
(g20
S'\xbfn\nM`x\xe6?'
p3842
tp3843
Rp3844
ag16
(g20
S'\xbc\xb9\x8b\xa7\x1f\xcb\xe6?'
p3845
tp3846
Rp3847
ag16
(g20
S'\xbc\xb9\x8b\xa7\x1f\xcb\xe6?'
p3848
tp3849
Rp3850
ag16
(g20
S'v\xb0cn&\xb7\xe6?'
p3851
tp3852
Rp3853
ag16
(g20
S'\xacd\xa1\x82q\xb1\xe6?'
p3854
tp3855
Rp3856
ag16
(g20
S'8w\xf1\xf4c\xd9\xe6?'
p3857
tp3858
Rp3859
ag16
(g20
S'\xb5\xe9\xd5\xe7\xe8\x94\xe6?'
p3860
tp3861
Rp3862
ag16
(g20
S'\x8a\xba\xcc8\x15~\xe6?'
p3863
tp3864
Rp3865
ag16
(g20
S'A\xfc%Z\xdb\xbc\xe6?'
p3866
tp3867
Rp3868
ag16
(g20
S'^\x8b\xc3\x89Ag\xe6?'
p3869
tp3870
Rp3871
ag16
(g20
S'v\xb0cn&\xb7\xe6?'
p3872
tp3873
Rp3874
ag16
(g20
S'\x8a\xba\xcc8\x15~\xe6?'
p3875
tp3876
Rp3877
ag16
(g20
S'o\xe0\xad\xae\xef\x80\xe6?'
p3878
tp3879
Rp3880
ag16
(g20
S'U\x06\x8f$\xca\x83\xe6?'
p3881
tp3882
Rp3883
ag16
(g20
S'U\x06\x8f$\xca\x83\xe6?'
p3884
tp3885
Rp3886
ag16
(g20
S'\xfb\xf2\xfd \xe2\xa8\xe6?'
p3887
tp3888
Rp3889
ag16
(g20
S'\xe3\xcd]<\xfdX\xe6?'
p3890
tp3891
Rp3892
ag16
(g20
S'\xe1\x18\xdf\x96\xbc\xab\xe6?'
p3893
tp3894
Rp3895
ag16
(g20
S'K\x81Z\xbfR\xa0\xe6?'
p3896
tp3897
Rp3898
ag16
(g20
S'\x9b\x0f\xb7]\xc3\x97\xe6?'
p3899
tp3900
Rp3901
ag16
(g20
S' RQ\x10\x7f\x89\xe6?'
p3902
tp3903
Rp3904
ag16
(g20
S'ye\xe2\x13gd\xe6?'
p3905
tp3906
Rp3907
ag16
(g20
S'\x8a\xba\xcc8\x15~\xe6?'
p3908
tp3909
Rp3910
ag16
(g20
S'\x805\x98\xd3\x9d\x9a\xe6?'
p3911
tp3912
Rp3913
ag16
(g20
S'\x805\x98\xd3\x9d\x9a\xe6?'
p3914
tp3915
Rp3916
ag16
(g20
S'o\xe0\xad\xae\xef\x80\xe6?'
p3917
tp3918
Rp3919
ag16
(g20
S':,p\x9a\xa4\x86\xe6?'
p3920
tp3921
Rp3922
ag16
(g20
S'v\xb0cn&\xb7\xe6?'
p3923
tp3924
Rp3925
ag16
(g20
S'\xbc\xb9\x8b\xa7\x1f\xcb\xe6?'
p3926
tp3927
Rp3928
ag16
(g20
S'\xc6>\xc0\x0c\x97\xae\xe6?'
p3929
tp3930
Rp3931
ag16
(g20
S'\x91\x8a\x82\xf8K\xb4\xe6?'
p3932
tp3933
Rp3934
ag16
(g20
S'\x91\x8a\x82\xf8K\xb4\xe6?'
p3935
tp3936
Rp3937
ag16
(g20
S'\xb5\xe9\xd5\xe7\xe8\x94\xe6?'
p3938
tp3939
Rp3940
ag16
(g20
S'\x05x2\x86Y\x8c\xe6?'
p3941
tp3942
Rp3943
ag16
(g20
S'0\xa7;5-\xa3\xe6?'
p3944
tp3945
Rp3946
ag16
(g20
S'\'"\x07\xd0\xb5\xbf\xe6?'
p3947
tp3948
Rp3949
ag16
(g20
S'\xfe\xa7|\xc6"V\xe6?'
p3950
tp3951
Rp3952
ag16
(g20
S'\x9b\x0f\xb7]\xc3\x97\xe6?'
p3953
tp3954
Rp3955
ag16
(g20
S'ye\xe2\x13gd\xe6?'
p3956
tp3957
Rp3958
ag16
(g20
S'\x9b\x0f\xb7]\xc3\x97\xe6?'
p3959
tp3960
Rp3961
ag16
(g20
S'f[yIx\x9d\xe6?'
p3962
tp3963
Rp3964
ag16
(g20
S'^\x8b\xc3\x89Ag\xe6?'
p3965
tp3966
Rp3967
ag16
(g20
S'\x0f\xfdf\xeb\xd0o\xe6?'
p3968
tp3969
Rp3970
ag16
(g20
S'ye\xe2\x13gd\xe6?'
p3971
tp3972
Rp3973
ag16
(g20
S'\xd0\xc3\xf4q\x0e\x92\xe6?'
p3974
tp3975
Rp3976
ag16
(g20
S'\x805\x98\xd3\x9d\x9a\xe6?'
p3977
tp3978
Rp3979
ag16
(g20
S'\x805\x98\xd3\x9d\x9a\xe6?'
p3980
tp3981
Rp3982
ag16
(g20
S'o\xe0\xad\xae\xef\x80\xe6?'
p3983
tp3984
Rp3985
ag16
(g20
S' RQ\x10\x7f\x89\xe6?'
p3986
tp3987
Rp3988
ag16
(g20
S'\xd0\xc3\xf4q\x0e\x92\xe6?'
p3989
tp3990
Rp3991
ag16
(g20
S'f[yIx\x9d\xe6?'
p3992
tp3993
Rp3994
ag16
(g20
S'o\xe0\xad\xae\xef\x80\xe6?'
p3995
tp3996
Rp3997
ag16
(g20
S'\xb5\xe9\xd5\xe7\xe8\x94\xe6?'
p3998
tp3999
Rp4000
ag16
(g20
S'\x805\x98\xd3\x9d\x9a\xe6?'
p4001
tp4002
Rp4003
ag16
(g20
S'\x805\x98\xd3\x9d\x9a\xe6?'
p4004
tp4005
Rp4006
ag16
(g20
S'U\x06\x8f$\xca\x83\xe6?'
p4007
tp4008
Rp4009
ag16
(g20
S'D\xb1\xa4\xff\x1bj\xe6?'
p4010
tp4011
Rp4012
ag16
(g20
S'f[yIx\x9d\xe6?'
p4013
tp4014
Rp4015
ag16
(g20
S'\x05x2\x86Y\x8c\xe6?'
p4016
tp4017
Rp4018
ag16
(g20
S'\xc6>\xc0\x0c\x97\xae\xe6?'
p4019
tp4020
Rp4021
ag16
(g20
S' RQ\x10\x7f\x89\xe6?'
p4022
tp4023
Rp4024
ag16
(g20
S'\xf4"Ha\xabr\xe6?'
p4025
tp4026
Rp4027
ag16
(g20
S'\xc6>\xc0\x0c\x97\xae\xe6?'
p4028
tp4029
Rp4030
ag16
(g20
S'f[yIx\x9d\xe6?'
p4031
tp4032
Rp4033
ag16
(g20
S'\xea\x9d\x13\xfc3\x8f\xe6?'
p4034
tp4035
Rp4036
ag16
(g20
S'\xbfn\nM`x\xe6?'
p4037
tp4038
Rp4039
ag16
(g20
S'U\x06\x8f$\xca\x83\xe6?'
p4040
tp4041
Rp4042
ag16
(g20
S'\x805\x98\xd3\x9d\x9a\xe6?'
p4043
tp4044
Rp4045
ag16
(g20
S'\x805\x98\xd3\x9d\x9a\xe6?'
p4046
tp4047
Rp4048
ag16
(g20
S'\xea\x9d\x13\xfc3\x8f\xe6?'
p4049
tp4050
Rp4051
ag16
(g20
S'\x91\x8a\x82\xf8K\xb4\xe6?'
p4052
tp4053
Rp4054
ag16
(g20
S'\xd7\x93\xaa1E\xc8\xe6?'
p4055
tp4056
Rp4057
ag16
(g20
S'0\xa7;5-\xa3\xe6?'
p4058
tp4059
Rp4060
ag16
(g20
S'\x05x2\x86Y\x8c\xe6?'
p4061
tp4062
Rp4063
ag16
(g20
S'\xa4\x94\xeb\xc2:{\xe6?'
p4064
tp4065
Rp4066
ag16
(g20
S'\x0f\xfdf\xeb\xd0o\xe6?'
p4067
tp4068
Rp4069
ag16
(g20
S'K\x81Z\xbfR\xa0\xe6?'
p4070
tp4071
Rp4072
ag16
(g20
S'o\xe0\xad\xae\xef\x80\xe6?'
p4073
tp4074
Rp4075
ag16
(g20
S'\xacd\xa1\x82q\xb1\xe6?'
p4076
tp4077
Rp4078
ag16
(g20
S'\xea\x9d\x13\xfc3\x8f\xe6?'
p4079
tp4080
Rp4081
ag16
(g20
S'\x91\x8a\x82\xf8K\xb4\xe6?'
p4082
tp4083
Rp4084
ag16
(g20
S'\x05x2\x86Y\x8c\xe6?'
p4085
tp4086
Rp4087
ag16
(g20
S'\xf4"Ha\xabr\xe6?'
p4088
tp4089
Rp4090
ag16
(g20
S'3\\\xba\xdamP\xe6?'
p4091
tp4092
Rp4093
ag16
(g20
S'\xe1\x18\xdf\x96\xbc\xab\xe6?'
p4094
tp4095
Rp4096
ag16
(g20
S'\xacd\xa1\x82q\xb1\xe6?'
p4097
tp4098
Rp4099
ag16
(g20
S'\xe1\x18\xdf\x96\xbc\xab\xe6?'
p4100
tp4101
Rp4102
ag16
(g20
S'v\xb0cn&\xb7\xe6?'
p4103
tp4104
Rp4105
ag16
(g20
S'\x18\x82\x9bPHS\xe6?'
p4106
tp4107
Rp4108
ag16
(g20
S'\xe1\x18\xdf\x96\xbc\xab\xe6?'
p4109
tp4110
Rp4111
ag16
(g20
S'\xdaH)\xd7\x85u\xe6?'
p4112
tp4113
Rp4114
ag16
(g20
S'\xd0\xc3\xf4q\x0e\x92\xe6?'
p4115
tp4116
Rp4117
ag16
(g20
S'A\xfc%Z\xdb\xbc\xe6?'
p4118
tp4119
Rp4120
ag16
(g20
S'\xd0\xc3\xf4q\x0e\x92\xe6?'
p4121
tp4122
Rp4123
ag16
(g20
S'\xd7\x93\xaa1E\xc8\xe6?'
p4124
tp4125
Rp4126
ag16
(g20
S'U\x06\x8f$\xca\x83\xe6?'
p4127
tp4128
Rp4129
ag16
(g20
S'\x91\x8a\x82\xf8K\xb4\xe6?'
p4130
tp4131
Rp4132
ag16
(g20
S'\x91\x8a\x82\xf8K\xb4\xe6?'
p4133
tp4134
Rp4135
ag16
(g20
S'\xbfn\nM`x\xe6?'
p4136
tp4137
Rp4138
ag16
(g20
S'v\xb0cn&\xb7\xe6?'
p4139
tp4140
Rp4141
ag16
(g20
S'\'"\x07\xd0\xb5\xbf\xe6?'
p4142
tp4143
Rp4144
ag16
(g20
S'0\xa7;5-\xa3\xe6?'
p4145
tp4146
Rp4147
ag16
(g20
S'\x94?\x01\x9e\x8ca\xe6?'
p4148
tp4149
Rp4150
ag16
(g20
S' RQ\x10\x7f\x89\xe6?'
p4151
tp4152
Rp4153
ag16
(g20
S'\\\xd6D\xe4\x00\xba\xe6?'
p4154
tp4155
Rp4156
ag16
(g20
S'\x05x2\x86Y\x8c\xe6?'
p4157
tp4158
Rp4159
ag16
(g20
S'0\xa7;5-\xa3\xe6?'
p4160
tp4161
Rp4162
ag16
(g20
S'K\x81Z\xbfR\xa0\xe6?'
p4163
tp4164
Rp4165
ag16
(g20
S'o\xe0\xad\xae\xef\x80\xe6?'
p4166
tp4167
Rp4168
ag16
(g20
S'\x05x2\x86Y\x8c\xe6?'
p4169
tp4170
Rp4171
ag16
(g20
S'K\x81Z\xbfR\xa0\xe6?'
p4172
tp4173
Rp4174
ag16
(g20
S'\x9b\x0f\xb7]\xc3\x97\xe6?'
p4175
tp4176
Rp4177
ag16
(g20
S'\'"\x07\xd0\xb5\xbf\xe6?'
p4178
tp4179
Rp4180
ag16
(g20
S'K\x81Z\xbfR\xa0\xe6?'
p4181
tp4182
Rp4183
ag16
(g20
S'\xd0\xc3\xf4q\x0e\x92\xe6?'
p4184
tp4185
Rp4186
ag16
(g20
S'\xfb\xf2\xfd \xe2\xa8\xe6?'
p4187
tp4188
Rp4189
ag16
(g20
S'U\x06\x8f$\xca\x83\xe6?'
p4190
tp4191
Rp4192
ag16
(g20
S'\x16\xcd\x1c\xab\x07\xa6\xe6?'
p4193
tp4194
Rp4195
ag16
(g20
S'\x8a\xba\xcc8\x15~\xe6?'
p4196
tp4197
Rp4198
ag16
(g20
S' RQ\x10\x7f\x89\xe6?'
p4199
tp4200
Rp4201
ag16
(g20
S' RQ\x10\x7f\x89\xe6?'
p4202
tp4203
Rp4204
ag16
(g20
S'\x9b\x0f\xb7]\xc3\x97\xe6?'
p4205
tp4206
Rp4207
ag16
(g20
S'U\x06\x8f$\xca\x83\xe6?'
p4208
tp4209
Rp4210
ag16
(g20
S'\x0f\xfdf\xeb\xd0o\xe6?'
p4211
tp4212
Rp4213
ag16
(g20
S'\x16\xcd\x1c\xab\x07\xa6\xe6?'
p4214
tp4215
Rp4216
ag16
(g20
S'^\x8b\xc3\x89Ag\xe6?'
p4217
tp4218
Rp4219
ag16
(g20
S'U\x06\x8f$\xca\x83\xe6?'
p4220
tp4221
Rp4222
ag16
(g20
S'\xea\x9d\x13\xfc3\x8f\xe6?'
p4223
tp4224
Rp4225
ag16
(g20
S'\xf4"Ha\xabr\xe6?'
p4226
tp4227
Rp4228
ag16
(g20
S':,p\x9a\xa4\x86\xe6?'
p4229
tp4230
Rp4231
ag16
(g20
S'\x18\x82\x9bPHS\xe6?'
p4232
tp4233
Rp4234
ag16
(g20
S'\x05x2\x86Y\x8c\xe6?'
p4235
tp4236
Rp4237
ag16
(g20
S'\x9b\x0f\xb7]\xc3\x97\xe6?'
p4238
tp4239
Rp4240
ag16
(g20
S' RQ\x10\x7f\x89\xe6?'
p4241
tp4242
Rp4243
ag16
(g20
S'^\x8b\xc3\x89Ag\xe6?'
p4244
tp4245
Rp4246
ag16
(g20
S'\x805\x98\xd3\x9d\x9a\xe6?'
p4247
tp4248
Rp4249
ag16
(g20
S'\xdaH)\xd7\x85u\xe6?'
p4250
tp4251
Rp4252
ag16
(g20
S'\xd0\xc3\xf4q\x0e\x92\xe6?'
p4253
tp4254
Rp4255
ag16
(g20
S' RQ\x10\x7f\x89\xe6?'
p4256
tp4257
Rp4258
ag16
(g20
S'\x18\x82\x9bPHS\xe6?'
p4259
tp4260
Rp4261
ag16
(g20
S'o\xe0\xad\xae\xef\x80\xe6?'
p4262
tp4263
Rp4264
ag16
(g20
S'\xbfn\nM`x\xe6?'
p4265
tp4266
Rp4267
ag16
(g20
S'D\xb1\xa4\xff\x1bj\xe6?'
p4268
tp4269
Rp4270
ag16
(g20
S'U\x06\x8f$\xca\x83\xe6?'
p4271
tp4272
Rp4273
ag16
(g20
S'\xea\x9d\x13\xfc3\x8f\xe6?'
p4274
tp4275
Rp4276
ag16
(g20
S'\xdaH)\xd7\x85u\xe6?'
p4277
tp4278
Rp4279
ag16
(g20
S'\xedR\x92\xa1t<\xe6?'
p4280
tp4281
Rp4282
ag16
(g20
S'o\xe0\xad\xae\xef\x80\xe6?'
p4283
tp4284
Rp4285
ag16
(g20
S' RQ\x10\x7f\x89\xe6?'
p4286
tp4287
Rp4288
ag16
(g20
S'\x94?\x01\x9e\x8ca\xe6?'
p4289
tp4290
Rp4291
ag16
(g20
S'\xe1\x18\xdf\x96\xbc\xab\xe6?'
p4292
tp4293
Rp4294
ag16
(g20
S'\x805\x98\xd3\x9d\x9a\xe6?'
p4295
tp4296
Rp4297
ag16
(g20
S'\xbfn\nM`x\xe6?'
p4298
tp4299
Rp4300
ag16
(g20
S'\x805\x98\xd3\x9d\x9a\xe6?'
p4301
tp4302
Rp4303
aasS'CNN_Uncertainty'
p4304
(lp4305
(lp4306
g16
(g20
S'\xcc~\x1e\xa6\x8fs\xe0?'
p4307
tp4308
Rp4309
ag16
(g20
S'=\xb7O\x8e\\\x9e\xe0?'
p4310
tp4311
Rp4312
ag16
(g20
S'\x83\xc0w\xc7U\xb2\xe0?'
p4313
tp4314
Rp4315
ag16
(g20
S'\xebstJ\xab\xf9\xe0?'
p4316
tp4317
Rp4318
ag16
(g20
S'LW\xbb\r\xca\n\xe1?'
p4319
tp4320
Rp4321
ag16
(g20
S'\x06N\x93\xd4\xd0\xf6\xe0?'
p4322
tp4323
Rp4324
ag16
(g20
S'w\x86\xc4\xbc\x9d!\xe1?'
p4325
tp4326
Rp4327
ag16
(g20
S'Z\xf7&\x8d7w\xe1?'
p4328
tp4329
Rp4330
ag16
(g20
S'\x88\xdb\xae\xe1K;\xe1?'
p4331
tp4332
Rp4333
ag16
(g20
S'I\xa2<h\x89]\xe1?'
p4334
tp4335
Rp4336
ag16
(g20
S'~Vz|\xd4W\xe1?'
p4337
tp4338
Rp4339
ag16
(g20
S'\xce\xe4\xd6\x1aEO\xe1?'
p4340
tp4341
Rp4342
ag16
(g20
S'.\xc8\x1d\xdec`\xe1?'
p4343
tp4344
Rp4345
ag16
(g20
S'Z\xf7&\x8d7w\xe1?'
p4346
tp4347
Rp4348
ag16
(g20
S'\xb1U9\xeb\xde\xa4\xe1?'
p4349
tp4350
Rp4351
ag16
(g20
S't\xd1E\x17]t\xe1?'
p4352
tp4353
Rp4354
ag16
(g20
S'6\x98\xd3\x9d\x9a\x96\xe1?'
p4355
tp4356
Rp4357
ag16
(g20
S'I\xa2<h\x89]\xe1?'
p4358
tp4359
Rp4360
ag16
(g20
S')^ \x93\xe2\x05\xe2?'
p4361
tp4362
Rp4363
ag16
(g20
S'WB\xa8\xe7\xf6\xc9\xe1?'
p4364
tp4365
Rp4366
ag16
(g20
S'\x96{\x1aa\xb9\xa7\xe1?'
p4367
tp4368
Rp4369
ag16
(g20
S'\xba\xdamPV\x88\xe1?'
p4370
tp4371
Rp4372
ag16
(g20
S'\x119\x80\xae\xfd\xb5\xe1?'
p4373
tp4374
Rp4375
ag16
(g20
S'\xe6\tw\xff)\x9f\xe1?'
p4376
tp4377
Rp4378
ag16
(g20
S't\xd1E\x17]t\xe1?'
p4379
tp4380
Rp4381
ag16
(g20
S'\xcb/Xu\x04\xa2\xe1?'
p4382
tp4383
Rp4384
ag16
(g20
S'{\xa1\xfb\xd6\x93\xaa\xe1?'
p4385
tp4386
Rp4387
ag16
(g20
S'h\x97\x92\x0c\xa5\xe3\xe1?'
p4388
tp4389
Rp4390
ag16
(g20
S'F\xed\xbd\xc2H\xb0\xe1?'
p4391
tp4392
Rp4393
ag16
(g20
S"Pr\xf2'\xc0\x93\xe1?"
p4394
tp4395
Rp4396
ag16
(g20
S'"\x8ej\xd3\xab\xcf\xe1?'
p4397
tp4398
Rp4399
ag16
(g20
S'WB\xa8\xe7\xf6\xc9\xe1?'
p4400
tp4401
Rp4402
ag16
(g20
S'\xf0\x8e\xabd\xa1\x82\xe1?'
p4403
tp4404
Rp4405
ag16
(g20
S'{\xa1\xfb\xd6\x93\xaa\xe1?'
p4406
tp4407
Rp4408
ag16
(g20
S'\x85&0<\x0b\x8e\xe1?'
p4409
tp4410
Rp4411
ag16
(g20
S'6\x98\xd3\x9d\x9a\x96\xe1?'
p4412
tp4413
Rp4414
ag16
(g20
S'\x9dK\xd0 \xf0\xdd\xe1?'
p4415
tp4416
Rp4417
ag16
(g20
S'\x9dK\xd0 \xf0\xdd\xe1?'
p4418
tp4419
Rp4420
ag16
(g20
S'F\xed\xbd\xc2H\xb0\xe1?'
p4421
tp4422
Rp4423
ag16
(g20
S'\x00\xe4\x95\x89O\x9c\xe1?'
p4424
tp4425
Rp4426
ag16
(g20
S'\x93\xc6\x9b\xbbx\xfa\xe1?'
p4427
tp4428
Rp4429
ag16
(g20
S'y\xec|1S\xfd\xe1?'
p4430
tp4431
Rp4432
ag16
(g20
S'D8?\x1d\x08\x03\xe2?'
p4433
tp4434
Rp4435
ag16
(g20
S'\x07\xb4KI\x86\xd2\xe1?'
p4436
tp4437
Rp4438
ag16
(g20
S'\x93\xc6\x9b\xbbx\xfa\xe1?'
p4439
tp4440
Rp4441
ag16
(g20
S'U\x8d)B\xb6\x1c\xe2?'
p4442
tp4443
Rp4444
ag16
(g20
S'ogH\xcc\xdb\x19\xe2?'
p4445
tp4446
Rp4447
ag16
(g20
S':\xb3\n\xb8\x90\x1f\xe2?'
p4448
tp4449
Rp4450
ag16
(g20
S'K\x08\xf5\xdc>9\xe2?'
p4451
tp4452
Rp4453
ag16
(g20
S'\x02JN\xfe\x04x\xe2?'
p4454
tp4455
Rp4456
ag16
(g20
S'\x16T\xb7\xc8\xf3>\xe2?'
p4457
tp4458
Rp4459
ag16
(g20
S'\x91\x11\x1d\x168M\xe2?'
p4460
tp4461
Rp4462
ag16
(g20
S'\x02JN\xfe\x04x\xe2?'
p4463
tp4464
Rp4465
ag16
(g20
S'\xa96\xbd\xfa\x1c\x9d\xe2?'
p4466
tp4467
Rp4468
ag16
(g20
S'\xd0J\x8f\x8f\xfa*\xe2?'
p4469
tp4470
Rp4471
ag16
(g20
S'\x1d$m\x88*u\xe2?'
p4472
tp4473
Rp4474
ag16
(g20
S'7\xfe\x8b\x12Pr\xe2?'
p4475
tp4476
Rp4477
ag16
(g20
S'R\xd8\xaa\x9cuo\xe2?'
p4478
tp4479
Rp4480
ag16
(g20
S'\x0c\xcf\x82c|[\xe2?'
p4481
tp4482
Rp4483
ag16
(g20
S'\xa96\xbd\xfa\x1c\x9d\xe2?'
p4484
tp4485
Rp4486
ag16
(g20
S'\x98\xe1\xd2\xd5n\x83\xe2?'
p4487
tp4488
Rp4489
ag16
(g20
S'?\xceA\xd2\x86\xa8\xe2?'
p4490
tp4491
Rp4492
ag16
(g20
S'\x1ao\xee\xe2\xe9\xc7\xe2?'
p4493
tp4494
Rp4495
ag16
(g20
S'<\x19\xc3,F\xfb\xe2?'
p4496
tp4497
Rp4498
ag16
(g20
S'\xc8+\x13\x9f8#\xe3?'
p4499
tp4500
Rp4501
ag16
(g20
S'{R5\xa6\x08\xd9\xe2?'
p4502
tp4503
Rp4504
ag16
(g20
S'\x11\xea\xb9}r\xe4\xe2?'
p4505
tp4506
Rp4507
ag16
(g20
S'\xa6\x81>U\xdc\xef\xe2?'
p4508
tp4509
Rp4510
ag16
(g20
S'\xec\x8af\x8e\xd5\x03\xe3?'
p4511
tp4512
Rp4513
ag16
(g20
S'\x9d\xfc\t\xf0d\x0c\xe3?'
p4514
tp4515
Rp4516
ag16
(g20
S'\x07e\x85\x18\xfb\x00\xe3?'
p4517
tp4518
Rp4519
ag16
(g20
S'{R5\xa6\x08\xd9\xe2?'
p4520
tp4521
Rp4522
ag16
(g20
S'F\x9e\xf7\x91\xbd\xde\xe2?'
p4523
tp4524
Rp4525
ag16
(g20
S'\x8c\xa7\x1f\xcb\xb6\xf2\xe2?'
p4526
tp4527
Rp4528
ag16
(g20
S'\xcb\xe0\x91Dy\xd0\xe2?'
p4529
tp4530
Rp4531
ag16
(g20
S'\x1ao\xee\xe2\xe9\xc7\xe2?'
p4532
tp4533
Rp4534
ag16
(g20
S'\x11\xea\xb9}r\xe4\xe2?'
p4535
tp4536
Rp4537
ag16
(g20
S'\x07e\x85\x18\xfb\x00\xe3?'
p4538
tp4539
Rp4540
ag16
(g20
S'gH\xcc\xdb\x19\x12\xe3?'
p4541
tp4542
Rp4543
ag16
(g20
S'\x07e\x85\x18\xfb\x00\xe3?'
p4544
tp4545
Rp4546
ag16
(g20
S'\xd9\x80\xfd\xc3\xe6<\xe3?'
p4547
tp4548
Rp4549
ag16
(g20
S'\xea\xd5\xe7\xe8\x94V\xe3?'
p4550
tp4551
Rp4552
ag16
(g20
S'0\xdf\x0f"\x8ej\xe3?'
p4553
tp4554
Rp4555
ag16
(g20
S'o\x18\x82\x9bPH\xe3?'
p4556
tp4557
Rp4558
ag16
(g20
S'\x15\x05\xf1\x97hm\xe3?'
p4559
tp4560
Rp4561
ag16
(g20
S'v\xe87[\x87~\xe3?'
p4562
tp4563
Rp4564
ag16
(g20
S'\x0b\x80\xbc2\xf1\x89\xe3?'
p4565
tp4566
Rp4567
ag16
(g20
S'\x15\x05\xf1\x97hm\xe3?'
p4568
tp4569
Rp4570
ag16
(g20
S'\xbc\xf1_\x94\x80\x92\xe3?'
p4571
tp4572
Rp4573
ag16
(g20
S'\x1c\xd5\xa6W\x9f\xa3\xe3?'
p4574
tp4575
Rp4576
ag16
(g20
S'b\xde\xce\x90\x98\xb7\xe3?'
p4577
tp4578
Rp4579
ag16
(g20
S'-*\x91|M\xbd\xe3?'
p4580
tp4581
Rp4582
ag16
(g20
S'b\xde\xce\x90\x98\xb7\xe3?'
p4583
tp4584
Rp4585
ag16
(g20
S'7\xaf\xc5\xe1\xc4\xa0\xe3?'
p4586
tp4587
Rp4588
ag16
(g20
S'\xb2l+/\t\xaf\xe3?'
p4589
tp4590
Rp4591
ag16
(g20
S'-*\x91|M\xbd\xe3?'
p4592
tp4593
Rp4594
ag16
(g20
S'\t\xcb=\x8d\xb0\xdc\xe3?'
p4595
tp4596
Rp4597
ag16
(g20
S'-*\x91|M\xbd\xe3?'
p4598
tp4599
Rp4600
ag16
(g20
S'\xe7 iCT\xa9\xe3?'
p4601
tp4602
Rp4603
ag16
(g20
S'\t\xcb=\x8d\xb0\xdc\xe3?'
p4604
tp4605
Rp4606
ag16
(g20
S'\x9fb\xc2d\x1a\xe8\xe3?'
p4607
tp4608
Rp4609
ag16
(g20
S'\xd4\x16\x00ye\xe2\xe3?'
p4610
tp4611
Rp4612
ag16
(g20
S'\x9fb\xc2d\x1a\xe8\xe3?'
p4613
tp4614
Rp4615
ag16
(g20
S'i\xae\x84P\xcf\xed\xe3?'
p4616
tp4617
Rp4618
ag16
(g20
S'z\x03ou}\x07\xe4?'
p4619
tp4620
Rp4621
ag16
(g20
S'4\xfaF<\x84\xf3\xe3?'
p4622
tp4623
Rp4624
ag16
(g20
S'\xaf\xb7\xac\x89\xc8\x01\xe4?'
p4625
tp4626
Rp4627
ag16
(g20
S'\t\xcb=\x8d\xb0\xdc\xe3?'
p4628
tp4629
Rp4630
ag16
(g20
S'i\xae\x84P\xcf\xed\xe3?'
p4631
tp4632
Rp4633
ag16
(g20
S'\xc0\x0c\x97\xaev\x1b\xe4?'
p4634
tp4635
Rp4636
ag16
(g20
S'\x9fb\xc2d\x1a\xe8\xe3?'
p4637
tp4638
Rp4639
ag16
(g20
S'\x1a (\xb2^\xf6\xe3?'
p4640
tp4641
Rp4642
ag16
(g20
S'\xca\x91\xcb\x13\xee\xfe\xe3?'
p4643
tp4644
Rp4645
ag16
(g20
S'O\xd4e\xc6\xa9\xf0\xe3?'
p4646
tp4647
Rp4648
ag16
(g20
S'\x1a (\xb2^\xf6\xe3?'
p4649
tp4650
Rp4651
ag16
(g20
S'`)P\xebW\n\xe4?'
p4652
tp4653
Rp4654
ag16
(g20
S'+u\x12\xd7\x0c\x10\xe4?'
p4655
tp4656
Rp4657
ag16
(g20
S'\xe5k\xea\x9d\x13\xfc\xe3?'
p4658
tp4659
Rp4660
ag16
(g20
S'z\x03ou}\x07\xe4?'
p4661
tp4662
Rp4663
ag16
(g20
S'z\x03ou}\x07\xe4?'
p4664
tp4665
Rp4666
ag16
(g20
S'\xca\x91\xcb\x13\xee\xfe\xe3?'
p4667
tp4668
Rp4669
ag16
(g20
S'\xca\x91\xcb\x13\xee\xfe\xe3?'
p4670
tp4671
Rp4672
ag16
(g20
S'\xb9<\xe1\xee?\xe5\xe3?'
p4673
tp4674
Rp4675
ag16
(g20
S'\xd4\x16\x00ye\xe2\xe3?'
p4676
tp4677
Rp4678
ag16
(g20
S'4\xfaF<\x84\xf3\xe3?'
p4679
tp4680
Rp4681
ag16
(g20
S'\xca\x91\xcb\x13\xee\xfe\xe3?'
p4682
tp4683
Rp4684
ag16
(g20
S'\xaf\xb7\xac\x89\xc8\x01\xe4?'
p4685
tp4686
Rp4687
ag16
(g20
S'\xffE\t(9\xf9\xe3?'
p4688
tp4689
Rp4690
ag16
(g20
S'\xdb\xe6\xb58\x9c\x18\xe4?'
p4691
tp4692
Rp4693
ag16
(g20
S'\xaf\xb7\xac\x89\xc8\x01\xe4?'
p4694
tp4695
Rp4696
ag16
(g20
S'z\x03ou}\x07\xe4?'
p4697
tp4698
Rp4699
ag16
(g20
S'!\xf0\xddq\x95,\xe4?'
p4700
tp4701
Rp4702
ag16
(g20
S'\xad\x02.\xe4\x87T\xe4?'
p4703
tp4704
Rp4705
ag16
(g20
S'!\xf0\xddq\x95,\xe4?'
p4706
tp4707
Rp4708
ag16
(g20
S'g\xf9\x05\xab\x8e@\xe4?'
p4709
tp4710
Rp4711
ag16
(g20
S'\xc7\xdcLn\xadQ\xe4?'
p4712
tp4713
Rp4714
ag16
(g20
S'n\xc9\xbbj\xc5v\xe4?'
p4715
tp4716
Rp4717
ag16
(g20
S'\xad\x02.\xe4\x87T\xe4?'
p4718
tp4719
Rp4720
ag16
(g20
S'\r\xe6t\xa7\xa6e\xe4?'
p4721
tp4722
Rp4723
ag16
(g20
S'\x17k\xa9\x0c\x1eI\xe4?'
p4724
tp4725
Rp4726
ag16
(g20
S'\x92(\x0fZbW\xe4?'
p4727
tp4728
Rp4729
ag16
(g20
S'\xc7\xdcLn\xadQ\xe4?'
p4730
tp4731
Rp4732
ag16
(g20
S'\x92(\x0fZbW\xe4?'
p4733
tp4734
Rp4735
ag16
(g20
S'\xc7\xdcLn\xadQ\xe4?'
p4736
tp4737
Rp4738
ag16
(g20
S'\xbeW\x18\t6n\xe4?'
p4739
tp4740
Rp4741
ag16
(g20
S'C\x9a\xb2\xbb\xf1_\xe4?'
p4742
tp4743
Rp4744
ag16
(g20
S']t\xd1E\x17]\xe4?'
p4745
tp4746
Rp4747
ag16
(g20
S'\xa3}\xf9~\x10q\xe4?'
p4748
tp4749
Rp4750
ag16
(g20
S'\xb4\xd2\xe3\xa3\xbe\x8a\xe4?'
p4751
tp4752
Rp4753
ag16
(g20
S'\xb4\xd2\xe3\xa3\xbe\x8a\xe4?'
p4754
tp4755
Rp4756
ag16
(g20
S'S\xef\x9c\xe0\x9fy\xe4?'
p4757
tp4758
Rp4759
ag16
(g20
S'9\x15~Vz|\xe4?'
p4760
tp4761
Rp4762
ag16
(g20
S'Jjh{(\x96\xe4?'
p4763
tp4764
Rp4765
ag16
(g20
S'dD\x87\x05N\x93\xe4?'
p4766
tp4767
Rp4768
ag16
(g20
S'Jjh{(\x96\xe4?'
p4769
tp4770
Rp4771
ag16
(g20
S'n\xc9\xbbj\xc5v\xe4?'
p4772
tp4773
Rp4774
ag16
(g20
S'\x7f\x1e\xa6\x8fs\x90\xe4?'
p4775
tp4776
Rp4777
ag16
(g20
S'\x7f\x1e\xa6\x8fs\x90\xe4?'
p4778
tp4779
Rp4780
ag16
(g20
S'\x04a@B/\x82\xe4?'
p4781
tp4782
Rp4783
ag16
(g20
S'/\x90I\xf1\x02\x99\xe4?'
p4784
tp4785
Rp4786
ag16
(g20
S'\x90s\x90\xb4!\xaa\xe4?'
p4787
tp4788
Rp4789
ag16
(g20
S'/\x90I\xf1\x02\x99\xe4?'
p4790
tp4791
Rp4792
ag16
(g20
S'@\xe53\x16\xb1\xb2\xe4?'
p4793
tp4794
Rp4795
ag16
(g20
S'\xfa\xdb\x0b\xdd\xb7\x9e\xe4?'
p4796
tp4797
Rp4798
ag16
(g20
S'\x1c\x86\xe0&\x14\xd2\xe4?'
p4799
tp4800
Rp4801
ag16
(g20
S'\xcc\xf7\x83\x88\xa3\xda\xe4?'
p4802
tp4803
Rp4804
ag16
(g20
S'\xf0V\xd7w@\xbb\xe4?'
p4805
tp4806
Rp4807
ag16
(g20
S'\x97CFtX\xe0\xe4?'
p4808
tp4809
Rp4810
ag16
(g20
S'\xd6|\xb8\xed\x1a\xbe\xe4?'
p4811
tp4812
Rp4813
ag16
(g20
S'\xf0V\xd7w@\xbb\xe4?'
p4814
tp4815
Rp4816
ag16
(g20
S'\xbb\xa2\x99c\xf5\xc0\xe4?'
p4817
tp4818
Rp4819
ag16
(g20
S"\xc5'\xce\xc8l\xa4\xe4?"
p4820
tp4821
Rp4822
ag16
(g20
S"\xc5'\xce\xc8l\xa4\xe4?"
p4823
tp4824
Rp4825
ag16
(g20
S',\xdb\xcaK\xc2\xeb\xe4?'
p4826
tp4827
Rp4828
ag16
(g20
S'b\x8f\x08`\r\xe6\xe4?'
p4829
tp4830
Rp4831
ag16
(g20
S'\xc2rO#,\xf7\xe4?'
p4832
tp4833
Rp4834
ag16
(g20
S'\x12\x01\xac\xc1\x9c\xee\xe4?'
p4835
tp4836
Rp4837
ag16
(g20
S'[\xbfR\xa0\xd6\xaf\xe4?'
p4838
tp4839
Rp4840
ag16
(g20
S'6`\xff\xb09\xcf\xe4?'
p4841
tp4842
Rp4843
ag16
(g20
S'\xaaM\xaf>G\xa7\xe4?'
p4844
tp4845
Rp4846
ag16
(g20
S'6`\xff\xb09\xcf\xe4?'
p4847
tp4848
Rp4849
ag16
(g20
S',\xdb\xcaK\xc2\xeb\xe4?'
p4850
tp4851
Rp4852
ag16
(g20
S'\x12\x01\xac\xc1\x9c\xee\xe4?'
p4853
tp4854
Rp4855
ag16
(g20
S'r\xe4\xf2\x84\xbb\xff\xe4?'
p4856
tp4857
Rp4858
ag16
(g20
S'\xc2rO#,\xf7\xe4?'
p4859
tp4860
Rp4861
ag16
(g20
S'\x839\xdd\xa9i\x19\xe5?'
p4862
tp4863
Rp4864
ag16
(g20
S'=0\xb5pp\x05\xe5?'
p4865
tp4866
Rp4867
ag16
(g20
S'#V\x96\xe6J\x08\xe5?'
p4868
tp4869
Rp4870
ag16
(g20
S'X\n\xd4\xfa\x95\x02\xe5?'
p4871
tp4872
Rp4873
ag16
(g20
S'4\xab\x80\x0b\xf9!\xe5?'
p4874
tp4875
Rp4876
ag16
(g20
S'\x839\xdd\xa9i\x19\xe5?'
p4877
tp4878
Rp4879
ag16
(g20
S'\x839\xdd\xa9i\x19\xe5?'
p4880
tp4881
Rp4882
ag16
(g20
S'\x9e\x13\xfc3\x8f\x16\xe5?'
p4883
tp4884
Rp4885
ag16
(g20
S'\xb8\xed\x1a\xbe\xb4\x13\xe5?'
p4886
tp4887
Rp4888
ag16
(g20
S'N\x85\x9f\x95\x1e\x1f\xe5?'
p4889
tp4890
Rp4891
ag16
(g20
S'\x19\xd1a\x81\xd3$\xe5?'
p4892
tp4893
Rp4894
ag16
(g20
S'\xa8\x980\x99\x06\xfa\xe4?'
p4895
tp4896
Rp4897
ag16
(g20
S'\xee\xa1X\xd2\xff\r\xe5?'
p4898
tp4899
Rp4900
ag16
(g20
S'\xd3\xc79H\xda\x10\xe5?'
p4901
tp4902
Rp4903
ag16
(g20
S"\xfe\xf6B\xf7\xad'\xe5?"
p4904
tp4905
Rp4906
ag16
(g20
S'\x839\xdd\xa9i\x19\xe5?'
p4907
tp4908
Rp4909
ag16
(g20
S"\xfe\xf6B\xf7\xad'\xe5?"
p4910
tp4911
Rp4912
ag16
(g20
S'\xd3\xc79H\xda\x10\xe5?'
p4913
tp4914
Rp4915
ag16
(g20
S'\xf5q\x0e\x926D\xe5?'
p4916
tp4917
Rp4918
ag16
(g20
S'\x06\xc7\xf8\xb6\xe4]\xe5?'
p4919
tp4920
Rp4921
ag16
(g20
S'\x19\xd1a\x81\xd3$\xe5?'
p4922
tp4923
Rp4924
ag16
(g20
S'\xf5q\x0e\x926D\xe5?'
p4925
tp4926
Rp4927
ag16
(g20
S'D\x00k0\xa7;\xe5?'
p4928
tp4929
Rp4930
ag16
(g20
S'\xe4\x1c$m\x88*\xe5?'
p4931
tp4932
Rp4933
ag16
(g20
S'\xddLn\xadQ\xf4\xe4?'
p4934
tp4935
Rp4936
ag16
(g20
S'i_\xbe\x1fD\x1c\xe5?'
p4937
tp4938
Rp4939
ag16
(g20
S'b\x8f\x08`\r\xe6\xe4?'
p4940
tp4941
Rp4942
ag16
(g20
S'\xa5\xe3\xb1\xf3\xc5L\xe5?'
p4943
tp4944
Rp4945
ag16
(g20
S'\xeb\xec\xd9,\xbf`\xe5?'
p4946
tp4947
Rp4948
ag16
(g20
S'\xeb\xec\xd9,\xbf`\xe5?'
p4949
tp4950
Rp4951
ag16
(g20
S'\x9b^}\x8eNi\xe5?'
p4952
tp4953
Rp4954
ag16
(g20
S'\x9b^}\x8eNi\xe5?'
p4955
tp4956
Rp4957
ag16
(g20
S'z\xb4\xa8D\xf25\xe5?'
p4958
tp4959
Rp4960
ag16
(g20
S';{6\xcb/X\xe5?'
p4961
tp4962
Rp4963
ag16
(g20
S'\xb68\x9c\x18tf\xe5?'
p4964
tp4965
Rp4966
ag16
(g20
S'\xa5\xe3\xb1\xf3\xc5L\xe5?'
p4967
tp4968
Rp4969
ag16
(g20
S'\x9b^}\x8eNi\xe5?'
p4970
tp4971
Rp4972
ag16
(g20
S'\xfcA\xc4Qmz\xe5?'
p4973
tp4974
Rp4975
ag16
(g20
S'\xda\x97\xef\x07\x11G\xe5?'
p4976
tp4977
Rp4978
ag16
(g20
S'D\x00k0\xa7;\xe5?'
p4979
tp4980
Rp4981
ag16
(g20
S'\\%\x0b\x15\x8c\x8b\xe5?'
p4982
tp4983
Rp4984
ag16
(g20
S'\x16\x1c\xe3\xdb\x92w\xe5?'
p4985
tp4986
Rp4987
ag16
(g20
S'\x81\x84^\x04)l\xe5?'
p4988
tp4989
Rp4990
ag16
(g20
S'\xfcA\xc4Qmz\xe5?'
p4991
tp4992
Rp4993
ag16
(g20
S'BK\xec\x8af\x8e\xe5?'
p4994
tp4995
Rp4996
ag16
(g20
S'w\xff)\x9f\xb1\x88\xe5?'
p4997
tp4998
Rp4999
ag16
(g20
S'\xfcA\xc4Qmz\xe5?'
p5000
tp5001
Rp5002
ag16
(g20
S'\xd0\x12\xbb\xa2\x99c\xe5?'
p5003
tp5004
Rp5005
ag16
(g20
S'BK\xec\x8af\x8e\xe5?'
p5006
tp5007
Rp5008
ag16
(g20
S'\x92\xd9H)\xd7\x85\xe5?'
p5009
tp5010
Rp5011
ag16
(g20
S'1\xf6\x01f\xb8t\xe5?'
p5012
tp5013
Rp5014
ag16
(g20
S'\xc7\x8d\x86="\x80\xe5?'
p5015
tp5016
Rp5017
ag16
(g20
S'1\xf6\x01f\xb8t\xe5?'
p5018
tp5019
Rp5020
ag16
(g20
S'\xd0\x12\xbb\xa2\x99c\xe5?'
p5021
tp5022
Rp5023
ag16
(g20
S'p/t\xdfzR\xe5?'
p5024
tp5025
Rp5026
ag16
(g20
S'\xe1g\xa5\xc7G}\xe5?'
p5027
tp5028
Rp5029
ag16
(g20
S'\r\x97\xaev\x1b\x94\xe5?'
p5030
tp5031
Rp5032
ag16
(g20
S"'q\xcd\x00A\x91\xe5?"
p5033
tp5034
Rp5035
ag16
(g20
S'\xbd\x08R\xd8\xaa\x9c\xe5?'
p5036
tp5037
Rp5038
ag16
(g20
S'\x1e\xec\x98\x9b\xc9\xad\xe5?'
p5039
tp5040
Rp5041
ag16
(g20
S'\xfcA\xc4Qmz\xe5?'
p5042
tp5043
Rp5044
ag16
(g20
S'\xac\xb3g\xb3\xfc\x82\xe5?'
p5045
tp5046
Rp5047
ag16
(g20
S'\xbd\x08R\xd8\xaa\x9c\xe5?'
p5048
tp5049
Rp5050
ag16
(g20
S'\x92\xd9H)\xd7\x85\xe5?'
p5051
tp5052
Rp5053
ag16
(g20
S'w\xff)\x9f\xb1\x88\xe5?'
p5054
tp5055
Rp5056
ag16
(g20
S'\xe87[\x87~\xb3\xe5?'
p5057
tp5058
Rp5059
ag16
(g20
S'\xbd\x08R\xd8\xaa\x9c\xe5?'
p5060
tp5061
Rp5062
ag16
(g20
S'\x16\x1c\xe3\xdb\x92w\xe5?'
p5063
tp5064
Rp5065
ag16
(g20
S'\x88T\x14\xc4_\xa2\xe5?'
p5066
tp5067
Rp5068
ag16
(g20
S'\xf9\x8cE\xac,\xcd\xe5?'
p5069
tp5070
Rp5071
ag16
(g20
S'8\xc6\xb7%\xef\xaa\xe5?'
p5072
tp5073
Rp5074
ag16
(g20
S'UUUUUU\xe5?'
p5075
tp5076
Rp5077
ag16
(g20
S'I\x1b\xa2J\x9d\xc4\xe5?'
p5078
tp5079
Rp5080
ag16
(g20
S'\x92\xd9H)\xd7\x85\xe5?'
p5081
tp5082
Rp5083
ag16
(g20
S"'q\xcd\x00A\x91\xe5?"
p5084
tp5085
Rp5086
ag16
(g20
S'\x88T\x14\xc4_\xa2\xe5?'
p5087
tp5088
Rp5089
ag16
(g20
S'\xf2\xbc\x8f\xec\xf5\x96\xe5?'
p5090
tp5091
Rp5092
ag16
(g20
S'mz\xf59:\xa5\xe5?'
p5093
tp5094
Rp5095
ag16
(g20
S'\xd8\xe2pb\xd0\x99\xe5?'
p5096
tp5097
Rp5098
ag16
(g20
S'\\%\x0b\x15\x8c\x8b\xe5?'
p5099
tp5100
Rp5101
ag16
(g20
S'S\xa0\xd6\xaf\x14\xa8\xe5?'
p5102
tp5103
Rp5104
ag16
(g20
S'\x1e\xec\x98\x9b\xc9\xad\xe5?'
p5105
tp5106
Rp5107
ag16
(g20
S'\x88T\x14\xc4_\xa2\xe5?'
p5108
tp5109
Rp5110
ag16
(g20
S'S\xa0\xd6\xaf\x14\xa8\xe5?'
p5111
tp5112
Rp5113
ag16
(g20
S'I\x1b\xa2J\x9d\xc4\xe5?'
p5114
tp5115
Rp5116
ag16
(g20
S'\xf2\xbc\x8f\xec\xf5\x96\xe5?'
p5117
tp5118
Rp5119
ag16
(g20
S'\x03\x12z\x11\xa4\xb0\xe5?'
p5120
tp5121
Rp5122
ag16
(g20
S'\x03\x12z\x11\xa4\xb0\xe5?'
p5123
tp5124
Rp5125
ag16
(g20
S'\n\xe2/\xd1\xda\xe6\xe5?'
p5126
tp5127
Rp5128
ag16
(g20
S'8\xc6\xb7%\xef\xaa\xe5?'
p5129
tp5130
Rp5131
ag16
(g20
S'\xb3\x83\x1ds3\xb9\xe5?'
p5132
tp5133
Rp5134
ag16
(g20
S'\xb3\x83\x1ds3\xb9\xe5?'
p5135
tp5136
Rp5137
ag16
(g20
S'f\xaa?z\x03o\xe5?'
p5138
tp5139
Rp5140
ag16
(g20
S'mz\xf59:\xa5\xe5?'
p5141
tp5142
Rp5143
ag16
(g20
S'\xfcA\xc4Qmz\xe5?'
p5144
tp5145
Rp5146
ag16
(g20
S'I\x1b\xa2J\x9d\xc4\xe5?'
p5147
tp5148
Rp5149
ag16
(g20
S'\xb3\x83\x1ds3\xb9\xe5?'
p5150
tp5151
Rp5152
ag16
(g20
S'\xaa\xfe\xe8\r\xbc\xd5\xe5?'
p5153
tp5154
Rp5155
ag16
(g20
S'\xf9\x8cE\xac,\xcd\xe5?'
p5156
tp5157
Rp5158
ag16
(g20
S'mz\xf59:\xa5\xe5?'
p5159
tp5160
Rp5161
ag16
(g20
S'\xdf\xb2&"\x07\xd0\xe5?'
p5162
tp5163
Rp5164
ag16
(g20
S'\xe87[\x87~\xb3\xe5?'
p5165
tp5166
Rp5167
ag16
(g20
S'?\x96m\xe5%\xe1\xe5?'
p5168
tp5169
Rp5170
ag16
(g20
S'\xa2.3N\x85\x9f\xe5?'
p5171
tp5172
Rp5173
ag16
(g20
S'tJ\xab\xf9p\xdb\xe5?'
p5174
tp5175
Rp5176
ag16
(g20
S'\x14gd6R\xca\xe5?'
p5177
tp5178
Rp5179
ag16
(g20
S'\xc4\xd8\x07\x98\xe1\xd2\xe5?'
p5180
tp5181
Rp5182
ag16
(g20
S'\xaa\xfe\xe8\r\xbc\xd5\xe5?'
p5183
tp5184
Rp5185
ag16
(g20
S'\x99\xa9\xfe\xe8\r\xbc\xe5?'
p5186
tp5187
Rp5188
ag16
(g20
S'\xce]<\xfdX\xb6\xe5?'
p5189
tp5190
Rp5191
ag16
(g20
S'\x99\xa9\xfe\xe8\r\xbc\xe5?'
p5192
tp5193
Rp5194
ag16
(g20
S'\xaa\xfe\xe8\r\xbc\xd5\xe5?'
p5195
tp5196
Rp5197
ag16
(g20
S'\xaa\xfe\xe8\r\xbc\xd5\xe5?'
p5198
tp5199
Rp5200
ag16
(g20
S'I\x1b\xa2J\x9d\xc4\xe5?'
p5201
tp5202
Rp5203
ag16
(g20
S'\xdf\xb2&"\x07\xd0\xe5?'
p5204
tp5205
Rp5206
ag16
(g20
S'.A\x83\xc0w\xc7\xe5?'
p5207
tp5208
Rp5209
ag16
(g20
S'tJ\xab\xf9p\xdb\xe5?'
p5210
tp5211
Rp5212
ag16
(g20
S'I\x1b\xa2J\x9d\xc4\xe5?'
p5213
tp5214
Rp5215
ag16
(g20
S'\xc4\xd8\x07\x98\xe1\xd2\xe5?'
p5216
tp5217
Rp5218
ag16
(g20
S'\x99\xa9\xfe\xe8\r\xbc\xe5?'
p5219
tp5220
Rp5221
ag16
(g20
S'\xf9\x8cE\xac,\xcd\xe5?'
p5222
tp5223
Rp5224
ag16
(g20
S'\x03\x12z\x11\xa4\xb0\xe5?'
p5225
tp5226
Rp5227
ag16
(g20
S'\x03\x12z\x11\xa4\xb0\xe5?'
p5228
tp5229
Rp5230
ag16
(g20
S'tJ\xab\xf9p\xdb\xe5?'
p5231
tp5232
Rp5233
ag16
(g20
S'\x8f$\xca\x83\x96\xd8\xe5?'
p5234
tp5235
Rp5236
ag16
(g20
S'\xc4\xd8\x07\x98\xe1\xd2\xe5?'
p5237
tp5238
Rp5239
ag16
(g20
S'\xaa\xfe\xe8\r\xbc\xd5\xe5?'
p5240
tp5241
Rp5242
ag16
(g20
S'\xf9\x8cE\xac,\xcd\xe5?'
p5243
tp5244
Rp5245
ag16
(g20
S'.A\x83\xc0w\xc7\xe5?'
p5246
tp5247
Rp5248
ag16
(g20
S'\xf9\x8cE\xac,\xcd\xe5?'
p5249
tp5250
Rp5251
ag16
(g20
S'tJ\xab\xf9p\xdb\xe5?'
p5252
tp5253
Rp5254
ag16
(g20
S'.A\x83\xc0w\xc7\xe5?'
p5255
tp5256
Rp5257
ag16
(g20
S'd\xf5\xc0\xd4\xc2\xc1\xe5?'
p5258
tp5259
Rp5260
ag16
(g20
S'\x99\xa9\xfe\xe8\r\xbc\xe5?'
p5261
tp5262
Rp5263
ag16
(g20
S'?\x96m\xe5%\xe1\xe5?'
p5264
tp5265
Rp5266
ag16
(g20
S'%\xbcN[\x00\xe4\xe5?'
p5267
tp5268
Rp5269
ag16
(g20
S'd\xf5\xc0\xd4\xc2\xc1\xe5?'
p5270
tp5271
Rp5272
ag16
(g20
S'%\xbcN[\x00\xe4\xe5?'
p5273
tp5274
Rp5275
ag16
(g20
S'\x85\x9f\x95\x1e\x1f\xf5\xe5?'
p5276
tp5277
Rp5278
ag16
(g20
S'\xc4\xd8\x07\x98\xe1\xd2\xe5?'
p5279
tp5280
Rp5281
ag16
(g20
S'\xc4\xd8\x07\x98\xe1\xd2\xe5?'
p5282
tp5283
Rp5284
ag16
(g20
S'd\xf5\xc0\xd4\xc2\xc1\xe5?'
p5285
tp5286
Rp5287
ag16
(g20
S'\xf0\x07\x11G\xb5\xe9\xe5?'
p5288
tp5289
Rp5290
ag16
(g20
S'\x85\x9f\x95\x1e\x1f\xf5\xe5?'
p5291
tp5292
Rp5293
ag16
(g20
S'\n\xe2/\xd1\xda\xe6\xe5?'
p5294
tp5295
Rp5296
ag16
(g20
S'\x8f$\xca\x83\x96\xd8\xe5?'
p5297
tp5298
Rp5299
ag16
(g20
S'\xf0\x07\x11G\xb5\xe9\xe5?'
p5300
tp5301
Rp5302
ag16
(g20
S'\xcb\xa8\xbdW\x18\t\xe6?'
p5303
tp5304
Rp5305
ag16
(g20
S'?\x96m\xe5%\xe1\xe5?'
p5306
tp5307
Rp5308
ag16
(g20
S'k\xc5v\x94\xf9\xf7\xe5?'
p5309
tp5310
Rp5311
ag16
(g20
S'\xaa\xfe\xe8\r\xbc\xd5\xe5?'
p5312
tp5313
Rp5314
ag16
(g20
S'\xd5-\xf2\xbc\x8f\xec\xe5?'
p5315
tp5316
Rp5317
ag16
(g20
S'\xd5-\xf2\xbc\x8f\xec\xe5?'
p5318
tp5319
Rp5320
ag16
(g20
S'\xa0y\xb4\xa8D\xf2\xe5?'
p5321
tp5322
Rp5323
ag16
(g20
S'\xa0y\xb4\xa8D\xf2\xe5?'
p5324
tp5325
Rp5326
ag16
(g20
S'\xb1\xce\x9e\xcd\xf2\x0b\xe6?'
p5327
tp5328
Rp5329
ag16
(g20
S'\x85\x9f\x95\x1e\x1f\xf5\xe5?'
p5330
tp5331
Rp5332
ag16
(g20
S'|\x1aa\xb9\xa7\x11\xe6?'
p5333
tp5334
Rp5335
ag16
(g20
S'k\xc5v\x94\xf9\xf7\xe5?'
p5336
tp5337
Rp5338
ag16
(g20
S'6\x119\x80\xae\xfd\xe5?'
p5339
tp5340
Rp5341
ag16
(g20
S'\x1b7\x1a\xf6\x88\x00\xe6?'
p5342
tp5343
Rp5344
ag16
(g20
S'\xf7\xd7\xc6\x06\xec\x1f\xe6?'
p5345
tp5346
Rp5347
ag16
(g20
S',\x8c\x04\x1b7\x1a\xe6?'
p5348
tp5349
Rp5350
ag16
(g20
S'a@B/\x82\x14\xe6?'
p5351
tp5352
Rp5353
ag16
(g20
S'|\x1aa\xb9\xa7\x11\xe6?'
p5354
tp5355
Rp5356
ag16
(g20
S'6\x119\x80\xae\xfd\xe5?'
p5357
tp5358
Rp5359
ag16
(g20
S'\xf7\xd7\xc6\x06\xec\x1f\xe6?'
p5360
tp5361
Rp5362
ag16
(g20
S'k\xc5v\x94\xf9\xf7\xe5?'
p5363
tp5364
Rp5365
ag16
(g20
S'k\xc5v\x94\xf9\xf7\xe5?'
p5366
tp5367
Rp5368
ag16
(g20
S'\x85\x9f\x95\x1e\x1f\xf5\xe5?'
p5369
tp5370
Rp5371
ag16
(g20
S'P\xebW\n\xd4\xfa\xe5?'
p5372
tp5373
Rp5374
ag16
(g20
S'\x96\xf4\x7fC\xcd\x0e\xe6?'
p5375
tp5376
Rp5377
ag16
(g20
S'\xd5-\xf2\xbc\x8f\xec\xe5?'
p5378
tp5379
Rp5380
ag16
(g20
S'\xcb\xa8\xbdW\x18\t\xe6?'
p5381
tp5382
Rp5383
ag16
(g20
S'\xd5-\xf2\xbc\x8f\xec\xe5?'
p5384
tp5385
Rp5386
ag16
(g20
S'a@B/\x82\x14\xe6?'
p5387
tp5388
Rp5389
ag16
(g20
S'\x00]\xfbkc\x03\xe6?'
p5390
tp5391
Rp5392
ag16
(g20
S'6\x119\x80\xae\xfd\xe5?'
p5393
tp5394
Rp5395
ag16
(g20
S'P\xebW\n\xd4\xfa\xe5?'
p5396
tp5397
Rp5398
ag16
(g20
S'|\x1aa\xb9\xa7\x11\xe6?'
p5399
tp5400
Rp5401
ag16
(g20
S'\xb1\xce\x9e\xcd\xf2\x0b\xe6?'
p5402
tp5403
Rp5404
ag16
(g20
S'Ff#\xa5\\\x17\xe6?'
p5405
tp5406
Rp5407
ag16
(g20
S'\x00]\xfbkc\x03\xe6?'
p5408
tp5409
Rp5410
ag16
(g20
S'\x96\xf4\x7fC\xcd\x0e\xe6?'
p5411
tp5412
Rp5413
ag16
(g20
S'P\xebW\n\xd4\xfa\xe5?'
p5414
tp5415
Rp5416
ag16
(g20
S'\x96\xf4\x7fC\xcd\x0e\xe6?'
p5417
tp5418
Rp5419
ag16
(g20
S'=\xe1\xee?\xe53\xe6?'
p5420
tp5421
Rp5422
ag16
(g20
S'\x11\xb2\xe5\x90\x11\x1d\xe6?'
p5423
tp5424
Rp5425
ag16
(g20
S'\xb1\xce\x9e\xcd\xf2\x0b\xe6?'
p5426
tp5427
Rp5428
ag16
(g20
S'\x11\xb2\xe5\x90\x11\x1d\xe6?'
p5429
tp5430
Rp5431
ag16
(g20
S'\xa7Ijh{(\xe6?'
p5432
tp5433
Rp5434
ag16
(g20
S'\xb1\xce\x9e\xcd\xf2\x0b\xe6?'
p5435
tp5436
Rp5437
ag16
(g20
S'Ff#\xa5\\\x17\xe6?'
p5438
tp5439
Rp5440
ag16
(g20
S',\x8c\x04\x1b7\x1a\xe6?'
p5441
tp5442
Rp5443
ag16
(g20
S'6\x119\x80\xae\xfd\xe5?'
p5444
tp5445
Rp5446
ag16
(g20
S',\x8c\x04\x1b7\x1a\xe6?'
p5447
tp5448
Rp5449
ag16
(g20
S'\x11\xb2\xe5\x90\x11\x1d\xe6?'
p5450
tp5451
Rp5452
ag16
(g20
S'\xa7Ijh{(\xe6?'
p5453
tp5454
Rp5455
ag16
(g20
S'r\x95,T0.\xe6?'
p5456
tp5457
Rp5458
ag16
(g20
S'\xf7\xd7\xc6\x06\xec\x1f\xe6?'
p5459
tp5460
Rp5461
ag16
(g20
S'\x8coK\xdeU+\xe6?'
p5462
tp5463
Rp5464
ag16
(g20
S'=\xe1\xee?\xe53\xe6?'
p5465
tp5466
Rp5467
ag16
(g20
S'\x9d\xc45\x03\x04E\xe6?'
p5468
tp5469
Rp5470
ag16
(g20
S'Ff#\xa5\\\x17\xe6?'
p5471
tp5472
Rp5473
ag16
(g20
S'\x83\xea\x16y\xdeG\xe6?'
p5474
tp5475
Rp5476
ag16
(g20
S'3\\\xba\xdamP\xe6?'
p5477
tp5478
Rp5479
ag16
(g20
S'h\x10\xf8\xee\xb8J\xe6?'
p5480
tp5481
Rp5482
ag16
(g20
S'\xf7\xd7\xc6\x06\xec\x1f\xe6?'
p5483
tp5484
Rp5485
ag16
(g20
S'\xfe\xa7|\xc6"V\xe6?'
p5486
tp5487
Rp5488
ag16
(g20
S'|\x1aa\xb9\xa7\x11\xe6?'
p5489
tp5490
Rp5491
ag16
(g20
S'\xedR\x92\xa1t<\xe6?'
p5492
tp5493
Rp5494
ag16
(g20
S'\xd2xs\x17O?\xe6?'
p5495
tp5496
Rp5497
ag16
(g20
S'\xf7\xd7\xc6\x06\xec\x1f\xe6?'
p5498
tp5499
Rp5500
ag16
(g20
S'\x83\xea\x16y\xdeG\xe6?'
p5501
tp5502
Rp5503
ag16
(g20
S'\x8coK\xdeU+\xe6?'
p5504
tp5505
Rp5506
ag16
(g20
S'\x8coK\xdeU+\xe6?'
p5507
tp5508
Rp5509
ag16
(g20
S'\x18\x82\x9bPHS\xe6?'
p5510
tp5511
Rp5512
ag16
(g20
S'\xedR\x92\xa1t<\xe6?'
p5513
tp5514
Rp5515
ag16
(g20
S'\x11\xb2\xe5\x90\x11\x1d\xe6?'
p5516
tp5517
Rp5518
ag16
(g20
S'\xd2xs\x17O?\xe6?'
p5519
tp5520
Rp5521
ag16
(g20
S'|\x1aa\xb9\xa7\x11\xe6?'
p5522
tp5523
Rp5524
ag16
(g20
S'\x83\xea\x16y\xdeG\xe6?'
p5525
tp5526
Rp5527
ag16
(g20
S'\x8coK\xdeU+\xe6?'
p5528
tp5529
Rp5530
ag16
(g20
S'\xd2xs\x17O?\xe6?'
p5531
tp5532
Rp5533
ag16
(g20
S'\x8coK\xdeU+\xe6?'
p5534
tp5535
Rp5536
ag16
(g20
S'\xf7\xd7\xc6\x06\xec\x1f\xe6?'
p5537
tp5538
Rp5539
ag16
(g20
S'\x11\xb2\xe5\x90\x11\x1d\xe6?'
p5540
tp5541
Rp5542
ag16
(g20
S'r\x95,T0.\xe6?'
p5543
tp5544
Rp5545
ag16
(g20
S'\x96\xf4\x7fC\xcd\x0e\xe6?'
p5546
tp5547
Rp5548
ag16
(g20
S'\x9d\xc45\x03\x04E\xe6?'
p5549
tp5550
Rp5551
ag16
(g20
S'=\xe1\xee?\xe53\xe6?'
p5552
tp5553
Rp5554
ag16
(g20
S'\x94?\x01\x9e\x8ca\xe6?'
p5555
tp5556
Rp5557
ag16
(g20
S'r\x95,T0.\xe6?'
p5558
tp5559
Rp5560
ag16
(g20
S'"\x07\xd0\xb5\xbf6\xe6?'
p5561
tp5562
Rp5563
ag16
(g20
S'\xd2xs\x17O?\xe6?'
p5564
tp5565
Rp5566
ag16
(g20
S'\x8coK\xdeU+\xe6?'
p5567
tp5568
Rp5569
ag16
(g20
S'\xd2xs\x17O?\xe6?'
p5570
tp5571
Rp5572
ag16
(g20
S'a@B/\x82\x14\xe6?'
p5573
tp5574
Rp5575
ag16
(g20
S'P\xebW\n\xd4\xfa\xe5?'
p5576
tp5577
Rp5578
ag16
(g20
S'\x08-\xb1+\x9a9\xe6?'
p5579
tp5580
Rp5581
ag16
(g20
S'\xb8\x9eT\x8d)B\xe6?'
p5582
tp5583
Rp5584
ag16
(g20
S'h\x10\xf8\xee\xb8J\xe6?'
p5585
tp5586
Rp5587
ag16
(g20
S'\xc2#\x89\xf2\xa0%\xe6?'
p5588
tp5589
Rp5590
ag16
(g20
S'W\xbb\r\xca\n1\xe6?'
p5591
tp5592
Rp5593
ag16
(g20
S'\xdc\xfd\xa7|\xc6"\xe6?'
p5594
tp5595
Rp5596
ag16
(g20
S'"\x07\xd0\xb5\xbf6\xe6?'
p5597
tp5598
Rp5599
ag16
(g20
S',\x8c\x04\x1b7\x1a\xe6?'
p5600
tp5601
Rp5602
ag16
(g20
S'"\x07\xd0\xb5\xbf6\xe6?'
p5603
tp5604
Rp5605
ag16
(g20
S'D\xb1\xa4\xff\x1bj\xe6?'
p5606
tp5607
Rp5608
ag16
(g20
S'r\x95,T0.\xe6?'
p5609
tp5610
Rp5611
ag16
(g20
S'=\xe1\xee?\xe53\xe6?'
p5612
tp5613
Rp5614
ag16
(g20
S'W\xbb\r\xca\n1\xe6?'
p5615
tp5616
Rp5617
ag16
(g20
S'\x08-\xb1+\x9a9\xe6?'
p5618
tp5619
Rp5620
ag16
(g20
S'\xb8\x9eT\x8d)B\xe6?'
p5621
tp5622
Rp5623
ag16
(g20
S'Ff#\xa5\\\x17\xe6?'
p5624
tp5625
Rp5626
ag16
(g20
S'=\xe1\xee?\xe53\xe6?'
p5627
tp5628
Rp5629
ag16
(g20
S'h\x10\xf8\xee\xb8J\xe6?'
p5630
tp5631
Rp5632
ag16
(g20
S'\xa7Ijh{(\xe6?'
p5633
tp5634
Rp5635
ag16
(g20
S'r\x95,T0.\xe6?'
p5636
tp5637
Rp5638
ag16
(g20
S'\xd2xs\x17O?\xe6?'
p5639
tp5640
Rp5641
ag16
(g20
S'"\x07\xd0\xb5\xbf6\xe6?'
p5642
tp5643
Rp5644
ag16
(g20
S'\xb8\x9eT\x8d)B\xe6?'
p5645
tp5646
Rp5647
ag16
(g20
S'r\x95,T0.\xe6?'
p5648
tp5649
Rp5650
ag16
(g20
S'\xe3\xcd]<\xfdX\xe6?'
p5651
tp5652
Rp5653
ag16
(g20
S'\xd2xs\x17O?\xe6?'
p5654
tp5655
Rp5656
ag16
(g20
S'\xd2xs\x17O?\xe6?'
p5657
tp5658
Rp5659
ag16
(g20
S'\x18\x82\x9bPHS\xe6?'
p5660
tp5661
Rp5662
ag16
(g20
S'\x18\x82\x9bPHS\xe6?'
p5663
tp5664
Rp5665
ag16
(g20
S',\x8c\x04\x1b7\x1a\xe6?'
p5666
tp5667
Rp5668
ag16
(g20
S'\xedR\x92\xa1t<\xe6?'
p5669
tp5670
Rp5671
ag16
(g20
S'h\x10\xf8\xee\xb8J\xe6?'
p5672
tp5673
Rp5674
ag16
(g20
S'\xb8\x9eT\x8d)B\xe6?'
p5675
tp5676
Rp5677
ag16
(g20
S'\xd2xs\x17O?\xe6?'
p5678
tp5679
Rp5680
ag16
(g20
S'N6\xd9d\x93M\xe6?'
p5681
tp5682
Rp5683
ag16
(g20
S'3\\\xba\xdamP\xe6?'
p5684
tp5685
Rp5686
ag16
(g20
S'\x83\xea\x16y\xdeG\xe6?'
p5687
tp5688
Rp5689
ag16
(g20
S'W\xbb\r\xca\n1\xe6?'
p5690
tp5691
Rp5692
ag16
(g20
S'\x8coK\xdeU+\xe6?'
p5693
tp5694
Rp5695
ag16
(g20
S'\x83\xea\x16y\xdeG\xe6?'
p5696
tp5697
Rp5698
ag16
(g20
S'\x9d\xc45\x03\x04E\xe6?'
p5699
tp5700
Rp5701
ag16
(g20
S'N6\xd9d\x93M\xe6?'
p5702
tp5703
Rp5704
ag16
(g20
S'N6\xd9d\x93M\xe6?'
p5705
tp5706
Rp5707
ag16
(g20
S'\xe3\xcd]<\xfdX\xe6?'
p5708
tp5709
Rp5710
ag16
(g20
S'\x9d\xc45\x03\x04E\xe6?'
p5711
tp5712
Rp5713
ag16
(g20
S')\xd7\x85u\xf6l\xe6?'
p5714
tp5715
Rp5716
ag16
(g20
S'ye\xe2\x13gd\xe6?'
p5717
tp5718
Rp5719
ag16
(g20
S'o\xe0\xad\xae\xef\x80\xe6?'
p5720
tp5721
Rp5722
ag16
(g20
S'\xa4\x94\xeb\xc2:{\xe6?'
p5723
tp5724
Rp5725
ag16
(g20
S'ye\xe2\x13gd\xe6?'
p5726
tp5727
Rp5728
ag16
(g20
S'\x94?\x01\x9e\x8ca\xe6?'
p5729
tp5730
Rp5731
ag16
(g20
S'"\x07\xd0\xb5\xbf6\xe6?'
p5732
tp5733
Rp5734
ag16
(g20
S'\xdaH)\xd7\x85u\xe6?'
p5735
tp5736
Rp5737
ag16
(g20
S')\xd7\x85u\xf6l\xe6?'
p5738
tp5739
Rp5740
ag16
(g20
S'\x94?\x01\x9e\x8ca\xe6?'
p5741
tp5742
Rp5743
ag16
(g20
S'\xfe\xa7|\xc6"V\xe6?'
p5744
tp5745
Rp5746
ag16
(g20
S'\xe3\xcd]<\xfdX\xe6?'
p5747
tp5748
Rp5749
ag16
(g20
S'\xfe\xa7|\xc6"V\xe6?'
p5750
tp5751
Rp5752
ag16
(g20
S'3\\\xba\xdamP\xe6?'
p5753
tp5754
Rp5755
ag16
(g20
S'"\x07\xd0\xb5\xbf6\xe6?'
p5756
tp5757
Rp5758
ag16
(g20
S'\x18\x82\x9bPHS\xe6?'
p5759
tp5760
Rp5761
ag16
(g20
S'D\xb1\xa4\xff\x1bj\xe6?'
p5762
tp5763
Rp5764
ag16
(g20
S')\xd7\x85u\xf6l\xe6?'
p5765
tp5766
Rp5767
ag16
(g20
S'\xfe\xa7|\xc6"V\xe6?'
p5768
tp5769
Rp5770
ag16
(g20
S'\xfe\xa7|\xc6"V\xe6?'
p5771
tp5772
Rp5773
ag16
(g20
S'\xf4"Ha\xabr\xe6?'
p5774
tp5775
Rp5776
ag16
(g20
S'^\x8b\xc3\x89Ag\xe6?'
p5777
tp5778
Rp5779
ag16
(g20
S'\xf4"Ha\xabr\xe6?'
p5780
tp5781
Rp5782
ag16
(g20
S'\xdaH)\xd7\x85u\xe6?'
p5783
tp5784
Rp5785
ag16
(g20
S'\xae\x19 (\xb2^\xe6?'
p5786
tp5787
Rp5788
ag16
(g20
S'\xae\x19 (\xb2^\xe6?'
p5789
tp5790
Rp5791
ag16
(g20
S'\xae\x19 (\xb2^\xe6?'
p5792
tp5793
Rp5794
ag16
(g20
S'\xdaH)\xd7\x85u\xe6?'
p5795
tp5796
Rp5797
ag16
(g20
S'\x94?\x01\x9e\x8ca\xe6?'
p5798
tp5799
Rp5800
ag16
(g20
S'\x94?\x01\x9e\x8ca\xe6?'
p5801
tp5802
Rp5803
ag16
(g20
S'3\\\xba\xdamP\xe6?'
p5804
tp5805
Rp5806
ag16
(g20
S'\xae\x19 (\xb2^\xe6?'
p5807
tp5808
Rp5809
ag16
(g20
S'3\\\xba\xdamP\xe6?'
p5810
tp5811
Rp5812
ag16
(g20
S'h\x10\xf8\xee\xb8J\xe6?'
p5813
tp5814
Rp5815
ag16
(g20
S'N6\xd9d\x93M\xe6?'
p5816
tp5817
Rp5818
ag16
(g20
S'ye\xe2\x13gd\xe6?'
p5819
tp5820
Rp5821
ag16
(g20
S'"\x07\xd0\xb5\xbf6\xe6?'
p5822
tp5823
Rp5824
ag16
(g20
S'\xb8\x9eT\x8d)B\xe6?'
p5825
tp5826
Rp5827
ag16
(g20
S'\x0f\xfdf\xeb\xd0o\xe6?'
p5828
tp5829
Rp5830
ag16
(g20
S'\xdaH)\xd7\x85u\xe6?'
p5831
tp5832
Rp5833
ag16
(g20
S'\xd2xs\x17O?\xe6?'
p5834
tp5835
Rp5836
ag16
(g20
S')\xd7\x85u\xf6l\xe6?'
p5837
tp5838
Rp5839
ag16
(g20
S'\x18\x82\x9bPHS\xe6?'
p5840
tp5841
Rp5842
ag16
(g20
S'ye\xe2\x13gd\xe6?'
p5843
tp5844
Rp5845
ag16
(g20
S'\xdaH)\xd7\x85u\xe6?'
p5846
tp5847
Rp5848
ag16
(g20
S'\xe3\xcd]<\xfdX\xe6?'
p5849
tp5850
Rp5851
ag16
(g20
S'N6\xd9d\x93M\xe6?'
p5852
tp5853
Rp5854
ag16
(g20
S':,p\x9a\xa4\x86\xe6?'
p5855
tp5856
Rp5857
ag16
(g20
S')\xd7\x85u\xf6l\xe6?'
p5858
tp5859
Rp5860
ag16
(g20
S'\xd2xs\x17O?\xe6?'
p5861
tp5862
Rp5863
ag16
(g20
S'"\x07\xd0\xb5\xbf6\xe6?'
p5864
tp5865
Rp5866
ag16
(g20
S'\x94?\x01\x9e\x8ca\xe6?'
p5867
tp5868
Rp5869
ag16
(g20
S'\x94?\x01\x9e\x8ca\xe6?'
p5870
tp5871
Rp5872
ag16
(g20
S'\x83\xea\x16y\xdeG\xe6?'
p5873
tp5874
Rp5875
ag16
(g20
S'\x0f\xfdf\xeb\xd0o\xe6?'
p5876
tp5877
Rp5878
ag16
(g20
S')\xd7\x85u\xf6l\xe6?'
p5879
tp5880
Rp5881
ag16
(g20
S'D\xb1\xa4\xff\x1bj\xe6?'
p5882
tp5883
Rp5884
ag16
(g20
S'\xa4\x94\xeb\xc2:{\xe6?'
p5885
tp5886
Rp5887
ag16
(g20
S'\xb8\x9eT\x8d)B\xe6?'
p5888
tp5889
Rp5890
ag16
(g20
S'^\x8b\xc3\x89Ag\xe6?'
p5891
tp5892
Rp5893
ag16
(g20
S'\x94?\x01\x9e\x8ca\xe6?'
p5894
tp5895
Rp5896
ag16
(g20
S'\x83\xea\x16y\xdeG\xe6?'
p5897
tp5898
Rp5899
ag16
(g20
S'\xae\x19 (\xb2^\xe6?'
p5900
tp5901
Rp5902
ag16
(g20
S'\x0f\xfdf\xeb\xd0o\xe6?'
p5903
tp5904
Rp5905
ag16
(g20
S'\xc9\xf3>\xb2\xd7[\xe6?'
p5906
tp5907
Rp5908
ag16
(g20
S'U\x06\x8f$\xca\x83\xe6?'
p5909
tp5910
Rp5911
ag16
(g20
S'\x805\x98\xd3\x9d\x9a\xe6?'
p5912
tp5913
Rp5914
ag16
(g20
S'\xa4\x94\xeb\xc2:{\xe6?'
p5915
tp5916
Rp5917
ag16
(g20
S'\x0f\xfdf\xeb\xd0o\xe6?'
p5918
tp5919
Rp5920
ag16
(g20
S'\x16\xcd\x1c\xab\x07\xa6\xe6?'
p5921
tp5922
Rp5923
ag16
(g20
S'\xea\x9d\x13\xfc3\x8f\xe6?'
p5924
tp5925
Rp5926
ag16
(g20
S'D\xb1\xa4\xff\x1bj\xe6?'
p5927
tp5928
Rp5929
ag16
(g20
S'\xb8\x9eT\x8d)B\xe6?'
p5930
tp5931
Rp5932
ag16
(g20
S'N6\xd9d\x93M\xe6?'
p5933
tp5934
Rp5935
ag16
(g20
S'\xc9\xf3>\xb2\xd7[\xe6?'
p5936
tp5937
Rp5938
ag16
(g20
S'\xea\x9d\x13\xfc3\x8f\xe6?'
p5939
tp5940
Rp5941
ag16
(g20
S'\xa4\x94\xeb\xc2:{\xe6?'
p5942
tp5943
Rp5944
ag16
(g20
S'\x8a\xba\xcc8\x15~\xe6?'
p5945
tp5946
Rp5947
ag16
(g20
S'U\x06\x8f$\xca\x83\xe6?'
p5948
tp5949
Rp5950
ag16
(g20
S'\x8a\xba\xcc8\x15~\xe6?'
p5951
tp5952
Rp5953
ag16
(g20
S'\xdaH)\xd7\x85u\xe6?'
p5954
tp5955
Rp5956
ag16
(g20
S':,p\x9a\xa4\x86\xe6?'
p5957
tp5958
Rp5959
ag16
(g20
S'\xdaH)\xd7\x85u\xe6?'
p5960
tp5961
Rp5962
ag16
(g20
S'\xa4\x94\xeb\xc2:{\xe6?'
p5963
tp5964
Rp5965
ag16
(g20
S'\xe3\xcd]<\xfdX\xe6?'
p5966
tp5967
Rp5968
ag16
(g20
S'\xd0\xc3\xf4q\x0e\x92\xe6?'
p5969
tp5970
Rp5971
ag16
(g20
S':,p\x9a\xa4\x86\xe6?'
p5972
tp5973
Rp5974
ag16
(g20
S'\xb5\xe9\xd5\xe7\xe8\x94\xe6?'
p5975
tp5976
Rp5977
ag16
(g20
S'D\xb1\xa4\xff\x1bj\xe6?'
p5978
tp5979
Rp5980
ag16
(g20
S'\xae\x19 (\xb2^\xe6?'
p5981
tp5982
Rp5983
ag16
(g20
S'\x805\x98\xd3\x9d\x9a\xe6?'
p5984
tp5985
Rp5986
ag16
(g20
S'\x05x2\x86Y\x8c\xe6?'
p5987
tp5988
Rp5989
ag16
(g20
S' RQ\x10\x7f\x89\xe6?'
p5990
tp5991
Rp5992
ag16
(g20
S'\xc9\xf3>\xb2\xd7[\xe6?'
p5993
tp5994
Rp5995
ag16
(g20
S'\x9b\x0f\xb7]\xc3\x97\xe6?'
p5996
tp5997
Rp5998
ag16
(g20
S'\xa4\x94\xeb\xc2:{\xe6?'
p5999
tp6000
Rp6001
ag16
(g20
S'\xb5\xe9\xd5\xe7\xe8\x94\xe6?'
p6002
tp6003
Rp6004
ag16
(g20
S'\xa4\x94\xeb\xc2:{\xe6?'
p6005
tp6006
Rp6007
ag16
(g20
S'U\x06\x8f$\xca\x83\xe6?'
p6008
tp6009
Rp6010
ag16
(g20
S'\xa4\x94\xeb\xc2:{\xe6?'
p6011
tp6012
Rp6013
ag16
(g20
S'\x8a\xba\xcc8\x15~\xe6?'
p6014
tp6015
Rp6016
ag16
(g20
S'^\x8b\xc3\x89Ag\xe6?'
p6017
tp6018
Rp6019
ag16
(g20
S'\xb5\xe9\xd5\xe7\xe8\x94\xe6?'
p6020
tp6021
Rp6022
ag16
(g20
S'\x05x2\x86Y\x8c\xe6?'
p6023
tp6024
Rp6025
ag16
(g20
S'\xf4"Ha\xabr\xe6?'
p6026
tp6027
Rp6028
ag16
(g20
S'U\x06\x8f$\xca\x83\xe6?'
p6029
tp6030
Rp6031
ag16
(g20
S'\xa4\x94\xeb\xc2:{\xe6?'
p6032
tp6033
Rp6034
ag16
(g20
S'o\xe0\xad\xae\xef\x80\xe6?'
p6035
tp6036
Rp6037
ag16
(g20
S':,p\x9a\xa4\x86\xe6?'
p6038
tp6039
Rp6040
ag16
(g20
S'f[yIx\x9d\xe6?'
p6041
tp6042
Rp6043
ag16
(g20
S'm+/\t\xaf\xd3\xe6?'
p6044
tp6045
Rp6046
ag16
(g20
S'\x05x2\x86Y\x8c\xe6?'
p6047
tp6048
Rp6049
ag16
(g20
S'\x805\x98\xd3\x9d\x9a\xe6?'
p6050
tp6051
Rp6052
ag16
(g20
S'\x9b\x0f\xb7]\xc3\x97\xe6?'
p6053
tp6054
Rp6055
ag16
(g20
S':,p\x9a\xa4\x86\xe6?'
p6056
tp6057
Rp6058
ag16
(g20
S' RQ\x10\x7f\x89\xe6?'
p6059
tp6060
Rp6061
ag16
(g20
S'\xf2m\xc9\xbbj\xc5\xe6?'
p6062
tp6063
Rp6064
ag16
(g20
S':,p\x9a\xa4\x86\xe6?'
p6065
tp6066
Rp6067
ag16
(g20
S'\x16\xcd\x1c\xab\x07\xa6\xe6?'
p6068
tp6069
Rp6070
ag16
(g20
S'K\x81Z\xbfR\xa0\xe6?'
p6071
tp6072
Rp6073
ag16
(g20
S'\xe1\x18\xdf\x96\xbc\xab\xe6?'
p6074
tp6075
Rp6076
ag16
(g20
S'\xea\x9d\x13\xfc3\x8f\xe6?'
p6077
tp6078
Rp6079
ag16
(g20
S'\x91\x8a\x82\xf8K\xb4\xe6?'
p6080
tp6081
Rp6082
ag16
(g20
S'\xb5\xe9\xd5\xe7\xe8\x94\xe6?'
p6083
tp6084
Rp6085
ag16
(g20
S'f[yIx\x9d\xe6?'
p6086
tp6087
Rp6088
ag16
(g20
S'U\x06\x8f$\xca\x83\xe6?'
p6089
tp6090
Rp6091
ag16
(g20
S' RQ\x10\x7f\x89\xe6?'
p6092
tp6093
Rp6094
ag16
(g20
S'\x805\x98\xd3\x9d\x9a\xe6?'
p6095
tp6096
Rp6097
ag16
(g20
S'\xb5\xe9\xd5\xe7\xe8\x94\xe6?'
p6098
tp6099
Rp6100
ag16
(g20
S'\xea\x9d\x13\xfc3\x8f\xe6?'
p6101
tp6102
Rp6103
ag16
(g20
S'\xd0\xc3\xf4q\x0e\x92\xe6?'
p6104
tp6105
Rp6106
ag16
(g20
S'\xbfn\nM`x\xe6?'
p6107
tp6108
Rp6109
ag16
(g20
S'\xea\x9d\x13\xfc3\x8f\xe6?'
p6110
tp6111
Rp6112
ag16
(g20
S'D\xb1\xa4\xff\x1bj\xe6?'
p6113
tp6114
Rp6115
ag16
(g20
S'\xb5\xe9\xd5\xe7\xe8\x94\xe6?'
p6116
tp6117
Rp6118
ag16
(g20
S'\x8a\xba\xcc8\x15~\xe6?'
p6119
tp6120
Rp6121
ag16
(g20
S'\x0f\xfdf\xeb\xd0o\xe6?'
p6122
tp6123
Rp6124
ag16
(g20
S'\xa4\x94\xeb\xc2:{\xe6?'
p6125
tp6126
Rp6127
ag16
(g20
S'\xfb\xf2\xfd \xe2\xa8\xe6?'
p6128
tp6129
Rp6130
ag16
(g20
S'o\xe0\xad\xae\xef\x80\xe6?'
p6131
tp6132
Rp6133
ag16
(g20
S'o\xe0\xad\xae\xef\x80\xe6?'
p6134
tp6135
Rp6136
ag16
(g20
S'^\x8b\xc3\x89Ag\xe6?'
p6137
tp6138
Rp6139
ag16
(g20
S'U\x06\x8f$\xca\x83\xe6?'
p6140
tp6141
Rp6142
ag16
(g20
S'\xd0\xc3\xf4q\x0e\x92\xe6?'
p6143
tp6144
Rp6145
ag16
(g20
S'D\xb1\xa4\xff\x1bj\xe6?'
p6146
tp6147
Rp6148
ag16
(g20
S')\xd7\x85u\xf6l\xe6?'
p6149
tp6150
Rp6151
ag16
(g20
S'\x94?\x01\x9e\x8ca\xe6?'
p6152
tp6153
Rp6154
ag16
(g20
S'\x8a\xba\xcc8\x15~\xe6?'
p6155
tp6156
Rp6157
ag16
(g20
S'D\xb1\xa4\xff\x1bj\xe6?'
p6158
tp6159
Rp6160
ag16
(g20
S'\xa4\x94\xeb\xc2:{\xe6?'
p6161
tp6162
Rp6163
ag16
(g20
S'ye\xe2\x13gd\xe6?'
p6164
tp6165
Rp6166
ag16
(g20
S'\x94?\x01\x9e\x8ca\xe6?'
p6167
tp6168
Rp6169
ag16
(g20
S'f[yIx\x9d\xe6?'
p6170
tp6171
Rp6172
ag16
(g20
S'\xdaH)\xd7\x85u\xe6?'
p6173
tp6174
Rp6175
ag16
(g20
S'o\xe0\xad\xae\xef\x80\xe6?'
p6176
tp6177
Rp6178
ag16
(g20
S'\x0f\xfdf\xeb\xd0o\xe6?'
p6179
tp6180
Rp6181
ag16
(g20
S'\x8a\xba\xcc8\x15~\xe6?'
p6182
tp6183
Rp6184
ag16
(g20
S')\xd7\x85u\xf6l\xe6?'
p6185
tp6186
Rp6187
ag16
(g20
S'\xf4"Ha\xabr\xe6?'
p6188
tp6189
Rp6190
ag16
(g20
S'\xbfn\nM`x\xe6?'
p6191
tp6192
Rp6193
ag16
(g20
S'\x8a\xba\xcc8\x15~\xe6?'
p6194
tp6195
Rp6196
ag16
(g20
S'\xb5\xe9\xd5\xe7\xe8\x94\xe6?'
p6197
tp6198
Rp6199
ag16
(g20
S'\x94?\x01\x9e\x8ca\xe6?'
p6200
tp6201
Rp6202
ag16
(g20
S'\xa4\x94\xeb\xc2:{\xe6?'
p6203
tp6204
Rp6205
ag16
(g20
S'\x9b\x0f\xb7]\xc3\x97\xe6?'
p6206
tp6207
Rp6208
ag16
(g20
S':,p\x9a\xa4\x86\xe6?'
p6209
tp6210
Rp6211
ag16
(g20
S')\xd7\x85u\xf6l\xe6?'
p6212
tp6213
Rp6214
ag16
(g20
S'\xae\x19 (\xb2^\xe6?'
p6215
tp6216
Rp6217
ag16
(g20
S'h\x10\xf8\xee\xb8J\xe6?'
p6218
tp6219
Rp6220
ag16
(g20
S'\x0f\xfdf\xeb\xd0o\xe6?'
p6221
tp6222
Rp6223
ag16
(g20
S'\x8a\xba\xcc8\x15~\xe6?'
p6224
tp6225
Rp6226
ag16
(g20
S'o\xe0\xad\xae\xef\x80\xe6?'
p6227
tp6228
Rp6229
ag16
(g20
S'\x8a\xba\xcc8\x15~\xe6?'
p6230
tp6231
Rp6232
ag16
(g20
S'\xbfn\nM`x\xe6?'
p6233
tp6234
Rp6235
ag16
(g20
S'\xe3\xcd]<\xfdX\xe6?'
p6236
tp6237
Rp6238
ag16
(g20
S'\xae\x19 (\xb2^\xe6?'
p6239
tp6240
Rp6241
ag16
(g20
S'\x05x2\x86Y\x8c\xe6?'
p6242
tp6243
Rp6244
ag16
(g20
S'\x94?\x01\x9e\x8ca\xe6?'
p6245
tp6246
Rp6247
ag16
(g20
S'\xa4\x94\xeb\xc2:{\xe6?'
p6248
tp6249
Rp6250
ag16
(g20
S' RQ\x10\x7f\x89\xe6?'
p6251
tp6252
Rp6253
ag16
(g20
S'^\x8b\xc3\x89Ag\xe6?'
p6254
tp6255
Rp6256
ag16
(g20
S'^\x8b\xc3\x89Ag\xe6?'
p6257
tp6258
Rp6259
ag16
(g20
S'\x0f\xfdf\xeb\xd0o\xe6?'
p6260
tp6261
Rp6262
ag16
(g20
S'\xc9\xf3>\xb2\xd7[\xe6?'
p6263
tp6264
Rp6265
ag16
(g20
S'\x94?\x01\x9e\x8ca\xe6?'
p6266
tp6267
Rp6268
ag16
(g20
S'\xfe\xa7|\xc6"V\xe6?'
p6269
tp6270
Rp6271
ag16
(g20
S'^\x8b\xc3\x89Ag\xe6?'
p6272
tp6273
Rp6274
ag16
(g20
S'3\\\xba\xdamP\xe6?'
p6275
tp6276
Rp6277
ag16
(g20
S'\x8a\xba\xcc8\x15~\xe6?'
p6278
tp6279
Rp6280
ag16
(g20
S'\xb8\x9eT\x8d)B\xe6?'
p6281
tp6282
Rp6283
ag16
(g20
S'^\x8b\xc3\x89Ag\xe6?'
p6284
tp6285
Rp6286
ag16
(g20
S'"\x07\xd0\xb5\xbf6\xe6?'
p6287
tp6288
Rp6289
ag16
(g20
S'r\x95,T0.\xe6?'
p6290
tp6291
Rp6292
ag16
(g20
S'\xe3\xcd]<\xfdX\xe6?'
p6293
tp6294
Rp6295
ag16
(g20
S'3\\\xba\xdamP\xe6?'
p6296
tp6297
Rp6298
ag16
(g20
S'W\xbb\r\xca\n1\xe6?'
p6299
tp6300
Rp6301
ag16
(g20
S'N6\xd9d\x93M\xe6?'
p6302
tp6303
Rp6304
ag16
(g20
S'\xf4"Ha\xabr\xe6?'
p6305
tp6306
Rp6307
ag16
(g20
S')\xd7\x85u\xf6l\xe6?'
p6308
tp6309
Rp6310
ag16
(g20
S'\xf4"Ha\xabr\xe6?'
p6311
tp6312
Rp6313
ag16
(g20
S'"\x07\xd0\xb5\xbf6\xe6?'
p6314
tp6315
Rp6316
ag16
(g20
S'\x8a\xba\xcc8\x15~\xe6?'
p6317
tp6318
Rp6319
ag16
(g20
S'3\\\xba\xdamP\xe6?'
p6320
tp6321
Rp6322
ag16
(g20
S'\xd2xs\x17O?\xe6?'
p6323
tp6324
Rp6325
ag16
(g20
S'ye\xe2\x13gd\xe6?'
p6326
tp6327
Rp6328
ag16
(g20
S'\x94?\x01\x9e\x8ca\xe6?'
p6329
tp6330
Rp6331
ag16
(g20
S'^\x8b\xc3\x89Ag\xe6?'
p6332
tp6333
Rp6334
ag16
(g20
S'\x0f\xfdf\xeb\xd0o\xe6?'
p6335
tp6336
Rp6337
ag16
(g20
S'0\xa7;5-\xa3\xe6?'
p6338
tp6339
Rp6340
ag16
(g20
S'o\xe0\xad\xae\xef\x80\xe6?'
p6341
tp6342
Rp6343
ag16
(g20
S'\x8a\xba\xcc8\x15~\xe6?'
p6344
tp6345
Rp6346
ag16
(g20
S'\x8a\xba\xcc8\x15~\xe6?'
p6347
tp6348
Rp6349
ag16
(g20
S'\xf4"Ha\xabr\xe6?'
p6350
tp6351
Rp6352
ag16
(g20
S'\xbfn\nM`x\xe6?'
p6353
tp6354
Rp6355
ag16
(g20
S'^\x8b\xc3\x89Ag\xe6?'
p6356
tp6357
Rp6358
ag16
(g20
S'\xf4"Ha\xabr\xe6?'
p6359
tp6360
Rp6361
ag16
(g20
S'\xdaH)\xd7\x85u\xe6?'
p6362
tp6363
Rp6364
ag16
(g20
S'\x0f\xfdf\xeb\xd0o\xe6?'
p6365
tp6366
Rp6367
ag16
(g20
S'\xb5\xe9\xd5\xe7\xe8\x94\xe6?'
p6368
tp6369
Rp6370
ag16
(g20
S'\x805\x98\xd3\x9d\x9a\xe6?'
p6371
tp6372
Rp6373
ag16
(g20
S'\xa4\x94\xeb\xc2:{\xe6?'
p6374
tp6375
Rp6376
ag16
(g20
S'K\x81Z\xbfR\xa0\xe6?'
p6377
tp6378
Rp6379
ag16
(g20
S'\x05x2\x86Y\x8c\xe6?'
p6380
tp6381
Rp6382
ag16
(g20
S'\xa4\x94\xeb\xc2:{\xe6?'
p6383
tp6384
Rp6385
ag16
(g20
S':,p\x9a\xa4\x86\xe6?'
p6386
tp6387
Rp6388
ag16
(g20
S'\x805\x98\xd3\x9d\x9a\xe6?'
p6389
tp6390
Rp6391
ag16
(g20
S'\xa4\x94\xeb\xc2:{\xe6?'
p6392
tp6393
Rp6394
ag16
(g20
S'\xbfn\nM`x\xe6?'
p6395
tp6396
Rp6397
ag16
(g20
S'ye\xe2\x13gd\xe6?'
p6398
tp6399
Rp6400
ag16
(g20
S'\xf4"Ha\xabr\xe6?'
p6401
tp6402
Rp6403
ag16
(g20
S'o\xe0\xad\xae\xef\x80\xe6?'
p6404
tp6405
Rp6406
ag16
(g20
S'K\x81Z\xbfR\xa0\xe6?'
p6407
tp6408
Rp6409
ag16
(g20
S'\x9b\x0f\xb7]\xc3\x97\xe6?'
p6410
tp6411
Rp6412
ag16
(g20
S'\xbfn\nM`x\xe6?'
p6413
tp6414
Rp6415
ag16
(g20
S'\xea\x9d\x13\xfc3\x8f\xe6?'
p6416
tp6417
Rp6418
ag16
(g20
S'^\x8b\xc3\x89Ag\xe6?'
p6419
tp6420
Rp6421
ag16
(g20
S'\xf2m\xc9\xbbj\xc5\xe6?'
p6422
tp6423
Rp6424
ag16
(g20
S'v\xb0cn&\xb7\xe6?'
p6425
tp6426
Rp6427
ag16
(g20
S'\xf4"Ha\xabr\xe6?'
p6428
tp6429
Rp6430
ag16
(g20
S'\x05x2\x86Y\x8c\xe6?'
p6431
tp6432
Rp6433
ag16
(g20
S'\xbfn\nM`x\xe6?'
p6434
tp6435
Rp6436
ag16
(g20
S'h\x10\xf8\xee\xb8J\xe6?'
p6437
tp6438
Rp6439
ag16
(g20
S'\xd2xs\x17O?\xe6?'
p6440
tp6441
Rp6442
ag16
(g20
S'\xe3\xcd]<\xfdX\xe6?'
p6443
tp6444
Rp6445
aass.